                                      1 ;--------------------------------------------------------
                                      2 ; File Created by SDCC : free open source ANSI-C Compiler
                                      3 ; Version 4.1.0 #12072 (MINGW64)
                                      4 ;--------------------------------------------------------
                                      5 	.module stm8s_uart1
                                      6 	.optsdcc -mstm8
                                      7 	
                                      8 ;--------------------------------------------------------
                                      9 ; Public variables in this module
                                     10 ;--------------------------------------------------------
                                     11 	.globl _assert_failed
                                     12 	.globl _CLK_GetClockFreq
                                     13 	.globl _UART1_DeInit
                                     14 	.globl _UART1_Init
                                     15 	.globl _UART1_Cmd
                                     16 	.globl _UART1_ITConfig
                                     17 	.globl _UART1_HalfDuplexCmd
                                     18 	.globl _UART1_IrDAConfig
                                     19 	.globl _UART1_IrDACmd
                                     20 	.globl _UART1_LINBreakDetectionConfig
                                     21 	.globl _UART1_LINCmd
                                     22 	.globl _UART1_SmartCardCmd
                                     23 	.globl _UART1_SmartCardNACKCmd
                                     24 	.globl _UART1_WakeUpConfig
                                     25 	.globl _UART1_ReceiverWakeUpCmd
                                     26 	.globl _UART1_ReceiveData8
                                     27 	.globl _UART1_ReceiveData9
                                     28 	.globl _UART1_SendData8
                                     29 	.globl _UART1_SendData9
                                     30 	.globl _UART1_SendBreak
                                     31 	.globl _UART1_SetAddress
                                     32 	.globl _UART1_SetGuardTime
                                     33 	.globl _UART1_SetPrescaler
                                     34 	.globl _UART1_GetFlagStatus
                                     35 	.globl _UART1_ClearFlag
                                     36 	.globl _UART1_GetITStatus
                                     37 	.globl _UART1_ClearITPendingBit
                                     38 ;--------------------------------------------------------
                                     39 ; ram data
                                     40 ;--------------------------------------------------------
                                     41 	.area DATA
                                     42 ;--------------------------------------------------------
                                     43 ; ram data
                                     44 ;--------------------------------------------------------
                                     45 	.area INITIALIZED
                                     46 ;--------------------------------------------------------
                                     47 ; absolute external ram data
                                     48 ;--------------------------------------------------------
                                     49 	.area DABS (ABS)
                                     50 
                                     51 ; default segment ordering for linker
                                     52 	.area HOME
                                     53 	.area GSINIT
                                     54 	.area GSFINAL
                                     55 	.area CONST
                                     56 	.area INITIALIZER
                                     57 	.area CODE
                                     58 
                                     59 ;--------------------------------------------------------
                                     60 ; global & static initialisations
                                     61 ;--------------------------------------------------------
                                     62 	.area HOME
                                     63 	.area GSINIT
                                     64 	.area GSFINAL
                                     65 	.area GSINIT
                                     66 ;--------------------------------------------------------
                                     67 ; Home
                                     68 ;--------------------------------------------------------
                                     69 	.area HOME
                                     70 	.area HOME
                                     71 ;--------------------------------------------------------
                                     72 ; code
                                     73 ;--------------------------------------------------------
                                     74 	.area CODE
                           000000    75 	Sstm8s_uart1$UART1_DeInit$0 ==.
                                     76 ;	../SPL/src/stm8s_uart1.c: 53: void UART1_DeInit(void)
                                     77 ; genLabel
                                     78 ;	-----------------------------------------
                                     79 ;	 function UART1_DeInit
                                     80 ;	-----------------------------------------
                                     81 ;	Register assignment is optimal.
                                     82 ;	Stack space usage: 0 bytes.
      000000                         83 _UART1_DeInit:
                           000000    84 	Sstm8s_uart1$UART1_DeInit$1 ==.
                           000000    85 	Sstm8s_uart1$UART1_DeInit$2 ==.
                                     86 ;	../SPL/src/stm8s_uart1.c: 57: (void)UART1->SR;
                                     87 ; genPointerGet
                                     88 ; Dummy read
      000000 C6 52 30         [ 1]   89 	ld	a, 0x5230
                           000003    90 	Sstm8s_uart1$UART1_DeInit$3 ==.
                                     91 ;	../SPL/src/stm8s_uart1.c: 58: (void)UART1->DR;
                                     92 ; genPointerGet
                                     93 ; Dummy read
      000003 C6 52 31         [ 1]   94 	ld	a, 0x5231
                           000006    95 	Sstm8s_uart1$UART1_DeInit$4 ==.
                                     96 ;	../SPL/src/stm8s_uart1.c: 60: UART1->BRR2 = UART1_BRR2_RESET_VALUE;  /* Set UART1_BRR2 to reset value 0x00 */
                                     97 ; genPointerSet
      000006 35 00 52 33      [ 1]   98 	mov	0x5233+0, #0x00
                           00000A    99 	Sstm8s_uart1$UART1_DeInit$5 ==.
                                    100 ;	../SPL/src/stm8s_uart1.c: 61: UART1->BRR1 = UART1_BRR1_RESET_VALUE;  /* Set UART1_BRR1 to reset value 0x00 */
                                    101 ; genPointerSet
      00000A 35 00 52 32      [ 1]  102 	mov	0x5232+0, #0x00
                           00000E   103 	Sstm8s_uart1$UART1_DeInit$6 ==.
                                    104 ;	../SPL/src/stm8s_uart1.c: 63: UART1->CR1 = UART1_CR1_RESET_VALUE;  /* Set UART1_CR1 to reset value 0x00 */
                                    105 ; genPointerSet
      00000E 35 00 52 34      [ 1]  106 	mov	0x5234+0, #0x00
                           000012   107 	Sstm8s_uart1$UART1_DeInit$7 ==.
                                    108 ;	../SPL/src/stm8s_uart1.c: 64: UART1->CR2 = UART1_CR2_RESET_VALUE;  /* Set UART1_CR2 to reset value 0x00 */
                                    109 ; genPointerSet
      000012 35 00 52 35      [ 1]  110 	mov	0x5235+0, #0x00
                           000016   111 	Sstm8s_uart1$UART1_DeInit$8 ==.
                                    112 ;	../SPL/src/stm8s_uart1.c: 65: UART1->CR3 = UART1_CR3_RESET_VALUE;  /* Set UART1_CR3 to reset value 0x00 */
                                    113 ; genPointerSet
      000016 35 00 52 36      [ 1]  114 	mov	0x5236+0, #0x00
                           00001A   115 	Sstm8s_uart1$UART1_DeInit$9 ==.
                                    116 ;	../SPL/src/stm8s_uart1.c: 66: UART1->CR4 = UART1_CR4_RESET_VALUE;  /* Set UART1_CR4 to reset value 0x00 */
                                    117 ; genPointerSet
      00001A 35 00 52 37      [ 1]  118 	mov	0x5237+0, #0x00
                           00001E   119 	Sstm8s_uart1$UART1_DeInit$10 ==.
                                    120 ;	../SPL/src/stm8s_uart1.c: 67: UART1->CR5 = UART1_CR5_RESET_VALUE;  /* Set UART1_CR5 to reset value 0x00 */
                                    121 ; genPointerSet
      00001E 35 00 52 38      [ 1]  122 	mov	0x5238+0, #0x00
                           000022   123 	Sstm8s_uart1$UART1_DeInit$11 ==.
                                    124 ;	../SPL/src/stm8s_uart1.c: 69: UART1->GTR = UART1_GTR_RESET_VALUE;
                                    125 ; genPointerSet
      000022 35 00 52 39      [ 1]  126 	mov	0x5239+0, #0x00
                           000026   127 	Sstm8s_uart1$UART1_DeInit$12 ==.
                                    128 ;	../SPL/src/stm8s_uart1.c: 70: UART1->PSCR = UART1_PSCR_RESET_VALUE;
                                    129 ; genPointerSet
      000026 35 00 52 3A      [ 1]  130 	mov	0x523a+0, #0x00
                                    131 ; genLabel
      00002A                        132 00101$:
                           00002A   133 	Sstm8s_uart1$UART1_DeInit$13 ==.
                                    134 ;	../SPL/src/stm8s_uart1.c: 71: }
                                    135 ; genEndFunction
                           00002A   136 	Sstm8s_uart1$UART1_DeInit$14 ==.
                           00002A   137 	XG$UART1_DeInit$0$0 ==.
      00002A 81               [ 4]  138 	ret
                           00002B   139 	Sstm8s_uart1$UART1_DeInit$15 ==.
                           00002B   140 	Sstm8s_uart1$UART1_Init$16 ==.
                                    141 ;	../SPL/src/stm8s_uart1.c: 90: void UART1_Init(uint32_t BaudRate, UART1_WordLength_TypeDef WordLength, 
                                    142 ; genLabel
                                    143 ;	-----------------------------------------
                                    144 ;	 function UART1_Init
                                    145 ;	-----------------------------------------
                                    146 ;	Register assignment might be sub-optimal.
                                    147 ;	Stack space usage: 13 bytes.
      00002B                        148 _UART1_Init:
                           00002B   149 	Sstm8s_uart1$UART1_Init$17 ==.
      00002B 52 0D            [ 2]  150 	sub	sp, #13
                           00002D   151 	Sstm8s_uart1$UART1_Init$18 ==.
                           00002D   152 	Sstm8s_uart1$UART1_Init$19 ==.
                                    153 ;	../SPL/src/stm8s_uart1.c: 97: assert_param(IS_UART1_BAUDRATE_OK(BaudRate));
                                    154 ; genCmp
                                    155 ; genCmpTop
      00002D AE 89 68         [ 2]  156 	ldw	x, #0x8968
      000030 13 12            [ 2]  157 	cpw	x, (0x12, sp)
      000032 A6 09            [ 1]  158 	ld	a, #0x09
      000034 12 11            [ 1]  159 	sbc	a, (0x11, sp)
      000036 4F               [ 1]  160 	clr	a
      000037 12 10            [ 1]  161 	sbc	a, (0x10, sp)
      000039 25 03            [ 1]  162 	jrc	00304$
      00003B CCr00r4D         [ 2]  163 	jp	00113$
      00003E                        164 00304$:
                                    165 ; skipping generated iCode
                                    166 ; skipping iCode since result will be rematerialized
                                    167 ; skipping iCode since result will be rematerialized
                                    168 ; genIPush
      00003E 4B 61            [ 1]  169 	push	#0x61
                           000040   170 	Sstm8s_uart1$UART1_Init$20 ==.
      000040 5F               [ 1]  171 	clrw	x
      000041 89               [ 2]  172 	pushw	x
                           000042   173 	Sstm8s_uart1$UART1_Init$21 ==.
      000042 4B 00            [ 1]  174 	push	#0x00
                           000044   175 	Sstm8s_uart1$UART1_Init$22 ==.
                                    176 ; genIPush
      000044 4Br00            [ 1]  177 	push	#<(___str_0+0)
                           000046   178 	Sstm8s_uart1$UART1_Init$23 ==.
      000046 4Bs00            [ 1]  179 	push	#((___str_0+0) >> 8)
                           000048   180 	Sstm8s_uart1$UART1_Init$24 ==.
                                    181 ; genCall
      000048 CDr00r00         [ 4]  182 	call	_assert_failed
      00004B 5B 06            [ 2]  183 	addw	sp, #6
                           00004D   184 	Sstm8s_uart1$UART1_Init$25 ==.
                                    185 ; genLabel
      00004D                        186 00113$:
                           00004D   187 	Sstm8s_uart1$UART1_Init$26 ==.
                                    188 ;	../SPL/src/stm8s_uart1.c: 98: assert_param(IS_UART1_WORDLENGTH_OK(WordLength));
                                    189 ; genIfx
      00004D 0D 14            [ 1]  190 	tnz	(0x14, sp)
      00004F 26 03            [ 1]  191 	jrne	00305$
      000051 CCr00r6C         [ 2]  192 	jp	00115$
      000054                        193 00305$:
                                    194 ; genCmpEQorNE
      000054 7B 14            [ 1]  195 	ld	a, (0x14, sp)
      000056 A1 10            [ 1]  196 	cp	a, #0x10
      000058 26 03            [ 1]  197 	jrne	00307$
      00005A CCr00r6C         [ 2]  198 	jp	00115$
      00005D                        199 00307$:
                           00005D   200 	Sstm8s_uart1$UART1_Init$27 ==.
                                    201 ; skipping generated iCode
                                    202 ; skipping iCode since result will be rematerialized
                                    203 ; skipping iCode since result will be rematerialized
                                    204 ; genIPush
      00005D 4B 62            [ 1]  205 	push	#0x62
                           00005F   206 	Sstm8s_uart1$UART1_Init$28 ==.
      00005F 5F               [ 1]  207 	clrw	x
      000060 89               [ 2]  208 	pushw	x
                           000061   209 	Sstm8s_uart1$UART1_Init$29 ==.
      000061 4B 00            [ 1]  210 	push	#0x00
                           000063   211 	Sstm8s_uart1$UART1_Init$30 ==.
                                    212 ; genIPush
      000063 4Br00            [ 1]  213 	push	#<(___str_0+0)
                           000065   214 	Sstm8s_uart1$UART1_Init$31 ==.
      000065 4Bs00            [ 1]  215 	push	#((___str_0+0) >> 8)
                           000067   216 	Sstm8s_uart1$UART1_Init$32 ==.
                                    217 ; genCall
      000067 CDr00r00         [ 4]  218 	call	_assert_failed
      00006A 5B 06            [ 2]  219 	addw	sp, #6
                           00006C   220 	Sstm8s_uart1$UART1_Init$33 ==.
                                    221 ; genLabel
      00006C                        222 00115$:
                           00006C   223 	Sstm8s_uart1$UART1_Init$34 ==.
                                    224 ;	../SPL/src/stm8s_uart1.c: 99: assert_param(IS_UART1_STOPBITS_OK(StopBits));
                                    225 ; genIfx
      00006C 0D 15            [ 1]  226 	tnz	(0x15, sp)
      00006E 26 03            [ 1]  227 	jrne	00309$
      000070 CCr00r9D         [ 2]  228 	jp	00120$
      000073                        229 00309$:
                                    230 ; genCmpEQorNE
      000073 7B 15            [ 1]  231 	ld	a, (0x15, sp)
      000075 A1 10            [ 1]  232 	cp	a, #0x10
      000077 26 03            [ 1]  233 	jrne	00311$
      000079 CCr00r9D         [ 2]  234 	jp	00120$
      00007C                        235 00311$:
                           00007C   236 	Sstm8s_uart1$UART1_Init$35 ==.
                                    237 ; skipping generated iCode
                                    238 ; genCmpEQorNE
      00007C 7B 15            [ 1]  239 	ld	a, (0x15, sp)
      00007E A1 20            [ 1]  240 	cp	a, #0x20
      000080 26 03            [ 1]  241 	jrne	00314$
      000082 CCr00r9D         [ 2]  242 	jp	00120$
      000085                        243 00314$:
                           000085   244 	Sstm8s_uart1$UART1_Init$36 ==.
                                    245 ; skipping generated iCode
                                    246 ; genCmpEQorNE
      000085 7B 15            [ 1]  247 	ld	a, (0x15, sp)
      000087 A1 30            [ 1]  248 	cp	a, #0x30
      000089 26 03            [ 1]  249 	jrne	00317$
      00008B CCr00r9D         [ 2]  250 	jp	00120$
      00008E                        251 00317$:
                           00008E   252 	Sstm8s_uart1$UART1_Init$37 ==.
                                    253 ; skipping generated iCode
                                    254 ; skipping iCode since result will be rematerialized
                                    255 ; skipping iCode since result will be rematerialized
                                    256 ; genIPush
      00008E 4B 63            [ 1]  257 	push	#0x63
                           000090   258 	Sstm8s_uart1$UART1_Init$38 ==.
      000090 5F               [ 1]  259 	clrw	x
      000091 89               [ 2]  260 	pushw	x
                           000092   261 	Sstm8s_uart1$UART1_Init$39 ==.
      000092 4B 00            [ 1]  262 	push	#0x00
                           000094   263 	Sstm8s_uart1$UART1_Init$40 ==.
                                    264 ; genIPush
      000094 4Br00            [ 1]  265 	push	#<(___str_0+0)
                           000096   266 	Sstm8s_uart1$UART1_Init$41 ==.
      000096 4Bs00            [ 1]  267 	push	#((___str_0+0) >> 8)
                           000098   268 	Sstm8s_uart1$UART1_Init$42 ==.
                                    269 ; genCall
      000098 CDr00r00         [ 4]  270 	call	_assert_failed
      00009B 5B 06            [ 2]  271 	addw	sp, #6
                           00009D   272 	Sstm8s_uart1$UART1_Init$43 ==.
                                    273 ; genLabel
      00009D                        274 00120$:
                           00009D   275 	Sstm8s_uart1$UART1_Init$44 ==.
                                    276 ;	../SPL/src/stm8s_uart1.c: 100: assert_param(IS_UART1_PARITY_OK(Parity));
                                    277 ; genIfx
      00009D 0D 16            [ 1]  278 	tnz	(0x16, sp)
      00009F 26 03            [ 1]  279 	jrne	00319$
      0000A1 CCr00rC5         [ 2]  280 	jp	00131$
      0000A4                        281 00319$:
                                    282 ; genCmpEQorNE
      0000A4 7B 16            [ 1]  283 	ld	a, (0x16, sp)
      0000A6 A1 04            [ 1]  284 	cp	a, #0x04
      0000A8 26 03            [ 1]  285 	jrne	00321$
      0000AA CCr00rC5         [ 2]  286 	jp	00131$
      0000AD                        287 00321$:
                           0000AD   288 	Sstm8s_uart1$UART1_Init$45 ==.
                                    289 ; skipping generated iCode
                                    290 ; genCmpEQorNE
      0000AD 7B 16            [ 1]  291 	ld	a, (0x16, sp)
      0000AF A1 06            [ 1]  292 	cp	a, #0x06
      0000B1 26 03            [ 1]  293 	jrne	00324$
      0000B3 CCr00rC5         [ 2]  294 	jp	00131$
      0000B6                        295 00324$:
                           0000B6   296 	Sstm8s_uart1$UART1_Init$46 ==.
                                    297 ; skipping generated iCode
                                    298 ; skipping iCode since result will be rematerialized
                                    299 ; skipping iCode since result will be rematerialized
                                    300 ; genIPush
      0000B6 4B 64            [ 1]  301 	push	#0x64
                           0000B8   302 	Sstm8s_uart1$UART1_Init$47 ==.
      0000B8 5F               [ 1]  303 	clrw	x
      0000B9 89               [ 2]  304 	pushw	x
                           0000BA   305 	Sstm8s_uart1$UART1_Init$48 ==.
      0000BA 4B 00            [ 1]  306 	push	#0x00
                           0000BC   307 	Sstm8s_uart1$UART1_Init$49 ==.
                                    308 ; genIPush
      0000BC 4Br00            [ 1]  309 	push	#<(___str_0+0)
                           0000BE   310 	Sstm8s_uart1$UART1_Init$50 ==.
      0000BE 4Bs00            [ 1]  311 	push	#((___str_0+0) >> 8)
                           0000C0   312 	Sstm8s_uart1$UART1_Init$51 ==.
                                    313 ; genCall
      0000C0 CDr00r00         [ 4]  314 	call	_assert_failed
      0000C3 5B 06            [ 2]  315 	addw	sp, #6
                           0000C5   316 	Sstm8s_uart1$UART1_Init$52 ==.
                                    317 ; genLabel
      0000C5                        318 00131$:
                           0000C5   319 	Sstm8s_uart1$UART1_Init$53 ==.
                                    320 ;	../SPL/src/stm8s_uart1.c: 101: assert_param(IS_UART1_MODE_OK((uint8_t)Mode));
                                    321 ; genCmpEQorNE
      0000C5 7B 18            [ 1]  322 	ld	a, (0x18, sp)
      0000C7 A1 08            [ 1]  323 	cp	a, #0x08
      0000C9 26 03            [ 1]  324 	jrne	00327$
      0000CB CCr01r2B         [ 2]  325 	jp	00139$
      0000CE                        326 00327$:
                           0000CE   327 	Sstm8s_uart1$UART1_Init$54 ==.
                                    328 ; skipping generated iCode
                                    329 ; genCmpEQorNE
      0000CE 7B 18            [ 1]  330 	ld	a, (0x18, sp)
      0000D0 A1 40            [ 1]  331 	cp	a, #0x40
      0000D2 26 03            [ 1]  332 	jrne	00330$
      0000D4 CCr01r2B         [ 2]  333 	jp	00139$
      0000D7                        334 00330$:
                           0000D7   335 	Sstm8s_uart1$UART1_Init$55 ==.
                                    336 ; skipping generated iCode
                                    337 ; genCmpEQorNE
      0000D7 7B 18            [ 1]  338 	ld	a, (0x18, sp)
      0000D9 A1 04            [ 1]  339 	cp	a, #0x04
      0000DB 26 03            [ 1]  340 	jrne	00333$
      0000DD CCr01r2B         [ 2]  341 	jp	00139$
      0000E0                        342 00333$:
                           0000E0   343 	Sstm8s_uart1$UART1_Init$56 ==.
                                    344 ; skipping generated iCode
                                    345 ; genCmpEQorNE
      0000E0 7B 18            [ 1]  346 	ld	a, (0x18, sp)
      0000E2 A1 80            [ 1]  347 	cp	a, #0x80
      0000E4 26 03            [ 1]  348 	jrne	00336$
      0000E6 CCr01r2B         [ 2]  349 	jp	00139$
      0000E9                        350 00336$:
                           0000E9   351 	Sstm8s_uart1$UART1_Init$57 ==.
                                    352 ; skipping generated iCode
                                    353 ; genCmpEQorNE
      0000E9 7B 18            [ 1]  354 	ld	a, (0x18, sp)
      0000EB A1 0C            [ 1]  355 	cp	a, #0x0c
      0000ED 26 05            [ 1]  356 	jrne	00339$
      0000EF A6 01            [ 1]  357 	ld	a, #0x01
      0000F1 CCr00rF5         [ 2]  358 	jp	00340$
      0000F4                        359 00339$:
      0000F4 4F               [ 1]  360 	clr	a
      0000F5                        361 00340$:
                           0000F5   362 	Sstm8s_uart1$UART1_Init$58 ==.
                                    363 ; genIfx
      0000F5 4D               [ 1]  364 	tnz	a
      0000F6 27 03            [ 1]  365 	jreq	00341$
      0000F8 CCr01r2B         [ 2]  366 	jp	00139$
      0000FB                        367 00341$:
                                    368 ; genIfx
      0000FB 4D               [ 1]  369 	tnz	a
      0000FC 27 03            [ 1]  370 	jreq	00342$
      0000FE CCr01r2B         [ 2]  371 	jp	00139$
      000101                        372 00342$:
                                    373 ; genCmpEQorNE
      000101 7B 18            [ 1]  374 	ld	a, (0x18, sp)
      000103 A1 44            [ 1]  375 	cp	a, #0x44
      000105 26 03            [ 1]  376 	jrne	00344$
      000107 CCr01r2B         [ 2]  377 	jp	00139$
      00010A                        378 00344$:
                           00010A   379 	Sstm8s_uart1$UART1_Init$59 ==.
                                    380 ; skipping generated iCode
                                    381 ; genCmpEQorNE
      00010A 7B 18            [ 1]  382 	ld	a, (0x18, sp)
      00010C A1 C0            [ 1]  383 	cp	a, #0xc0
      00010E 26 03            [ 1]  384 	jrne	00347$
      000110 CCr01r2B         [ 2]  385 	jp	00139$
      000113                        386 00347$:
                           000113   387 	Sstm8s_uart1$UART1_Init$60 ==.
                                    388 ; skipping generated iCode
                                    389 ; genCmpEQorNE
      000113 7B 18            [ 1]  390 	ld	a, (0x18, sp)
      000115 A1 88            [ 1]  391 	cp	a, #0x88
      000117 26 03            [ 1]  392 	jrne	00350$
      000119 CCr01r2B         [ 2]  393 	jp	00139$
      00011C                        394 00350$:
                           00011C   395 	Sstm8s_uart1$UART1_Init$61 ==.
                                    396 ; skipping generated iCode
                                    397 ; skipping iCode since result will be rematerialized
                                    398 ; skipping iCode since result will be rematerialized
                                    399 ; genIPush
      00011C 4B 65            [ 1]  400 	push	#0x65
                           00011E   401 	Sstm8s_uart1$UART1_Init$62 ==.
      00011E 5F               [ 1]  402 	clrw	x
      00011F 89               [ 2]  403 	pushw	x
                           000120   404 	Sstm8s_uart1$UART1_Init$63 ==.
      000120 4B 00            [ 1]  405 	push	#0x00
                           000122   406 	Sstm8s_uart1$UART1_Init$64 ==.
                                    407 ; genIPush
      000122 4Br00            [ 1]  408 	push	#<(___str_0+0)
                           000124   409 	Sstm8s_uart1$UART1_Init$65 ==.
      000124 4Bs00            [ 1]  410 	push	#((___str_0+0) >> 8)
                           000126   411 	Sstm8s_uart1$UART1_Init$66 ==.
                                    412 ; genCall
      000126 CDr00r00         [ 4]  413 	call	_assert_failed
      000129 5B 06            [ 2]  414 	addw	sp, #6
                           00012B   415 	Sstm8s_uart1$UART1_Init$67 ==.
                                    416 ; genLabel
      00012B                        417 00139$:
                           00012B   418 	Sstm8s_uart1$UART1_Init$68 ==.
                                    419 ;	../SPL/src/stm8s_uart1.c: 102: assert_param(IS_UART1_SYNCMODE_OK((uint8_t)SyncMode));
                                    420 ; genAnd
      00012B 7B 17            [ 1]  421 	ld	a, (0x17, sp)
      00012D A4 88            [ 1]  422 	and	a, #0x88
                                    423 ; genCmpEQorNE
      00012F A1 88            [ 1]  424 	cp	a, #0x88
      000131 26 03            [ 1]  425 	jrne	00353$
      000133 CCr01r5A         [ 2]  426 	jp	00167$
      000136                        427 00353$:
                           000136   428 	Sstm8s_uart1$UART1_Init$69 ==.
                                    429 ; skipping generated iCode
                                    430 ; genAnd
      000136 7B 17            [ 1]  431 	ld	a, (0x17, sp)
      000138 A4 44            [ 1]  432 	and	a, #0x44
                                    433 ; genCmpEQorNE
      00013A A1 44            [ 1]  434 	cp	a, #0x44
      00013C 26 03            [ 1]  435 	jrne	00356$
      00013E CCr01r5A         [ 2]  436 	jp	00167$
      000141                        437 00356$:
                           000141   438 	Sstm8s_uart1$UART1_Init$70 ==.
                                    439 ; skipping generated iCode
                                    440 ; genAnd
      000141 7B 17            [ 1]  441 	ld	a, (0x17, sp)
      000143 A4 22            [ 1]  442 	and	a, #0x22
                                    443 ; genCmpEQorNE
      000145 A1 22            [ 1]  444 	cp	a, #0x22
      000147 26 03            [ 1]  445 	jrne	00359$
      000149 CCr01r5A         [ 2]  446 	jp	00167$
      00014C                        447 00359$:
                           00014C   448 	Sstm8s_uart1$UART1_Init$71 ==.
                                    449 ; skipping generated iCode
                                    450 ; genAnd
      00014C 7B 17            [ 1]  451 	ld	a, (0x17, sp)
      00014E A4 11            [ 1]  452 	and	a, #0x11
                                    453 ; genCmpEQorNE
      000150 A1 11            [ 1]  454 	cp	a, #0x11
      000152 26 03            [ 1]  455 	jrne	00362$
      000154 CCr01r5A         [ 2]  456 	jp	00363$
      000157                        457 00362$:
      000157 CCr01r69         [ 2]  458 	jp	00165$
      00015A                        459 00363$:
                           00015A   460 	Sstm8s_uart1$UART1_Init$72 ==.
                                    461 ; skipping generated iCode
                                    462 ; genLabel
      00015A                        463 00167$:
                                    464 ; skipping iCode since result will be rematerialized
                                    465 ; skipping iCode since result will be rematerialized
                                    466 ; genIPush
      00015A 4B 66            [ 1]  467 	push	#0x66
                           00015C   468 	Sstm8s_uart1$UART1_Init$73 ==.
      00015C 5F               [ 1]  469 	clrw	x
      00015D 89               [ 2]  470 	pushw	x
                           00015E   471 	Sstm8s_uart1$UART1_Init$74 ==.
      00015E 4B 00            [ 1]  472 	push	#0x00
                           000160   473 	Sstm8s_uart1$UART1_Init$75 ==.
                                    474 ; genIPush
      000160 4Br00            [ 1]  475 	push	#<(___str_0+0)
                           000162   476 	Sstm8s_uart1$UART1_Init$76 ==.
      000162 4Bs00            [ 1]  477 	push	#((___str_0+0) >> 8)
                           000164   478 	Sstm8s_uart1$UART1_Init$77 ==.
                                    479 ; genCall
      000164 CDr00r00         [ 4]  480 	call	_assert_failed
      000167 5B 06            [ 2]  481 	addw	sp, #6
                           000169   482 	Sstm8s_uart1$UART1_Init$78 ==.
                                    483 ; genLabel
      000169                        484 00165$:
                           000169   485 	Sstm8s_uart1$UART1_Init$79 ==.
                                    486 ;	../SPL/src/stm8s_uart1.c: 105: UART1->CR1 &= (uint8_t)(~UART1_CR1_M);  
                                    487 ; genPointerGet
      000169 C6 52 34         [ 1]  488 	ld	a, 0x5234
                                    489 ; genAnd
      00016C A4 EF            [ 1]  490 	and	a, #0xef
                                    491 ; genPointerSet
      00016E C7 52 34         [ 1]  492 	ld	0x5234, a
                           000171   493 	Sstm8s_uart1$UART1_Init$80 ==.
                                    494 ;	../SPL/src/stm8s_uart1.c: 108: UART1->CR1 |= (uint8_t)WordLength;
                                    495 ; genPointerGet
      000171 C6 52 34         [ 1]  496 	ld	a, 0x5234
                                    497 ; genOr
      000174 1A 14            [ 1]  498 	or	a, (0x14, sp)
                                    499 ; genPointerSet
      000176 C7 52 34         [ 1]  500 	ld	0x5234, a
                           000179   501 	Sstm8s_uart1$UART1_Init$81 ==.
                                    502 ;	../SPL/src/stm8s_uart1.c: 111: UART1->CR3 &= (uint8_t)(~UART1_CR3_STOP);  
                                    503 ; genPointerGet
      000179 C6 52 36         [ 1]  504 	ld	a, 0x5236
                                    505 ; genAnd
      00017C A4 CF            [ 1]  506 	and	a, #0xcf
                                    507 ; genPointerSet
      00017E C7 52 36         [ 1]  508 	ld	0x5236, a
                           000181   509 	Sstm8s_uart1$UART1_Init$82 ==.
                                    510 ;	../SPL/src/stm8s_uart1.c: 113: UART1->CR3 |= (uint8_t)StopBits;  
                                    511 ; genPointerGet
      000181 C6 52 36         [ 1]  512 	ld	a, 0x5236
                                    513 ; genOr
      000184 1A 15            [ 1]  514 	or	a, (0x15, sp)
                                    515 ; genPointerSet
      000186 C7 52 36         [ 1]  516 	ld	0x5236, a
                           000189   517 	Sstm8s_uart1$UART1_Init$83 ==.
                                    518 ;	../SPL/src/stm8s_uart1.c: 116: UART1->CR1 &= (uint8_t)(~(UART1_CR1_PCEN | UART1_CR1_PS  ));  
                                    519 ; genPointerGet
      000189 C6 52 34         [ 1]  520 	ld	a, 0x5234
                                    521 ; genAnd
      00018C A4 F9            [ 1]  522 	and	a, #0xf9
                                    523 ; genPointerSet
      00018E C7 52 34         [ 1]  524 	ld	0x5234, a
                           000191   525 	Sstm8s_uart1$UART1_Init$84 ==.
                                    526 ;	../SPL/src/stm8s_uart1.c: 118: UART1->CR1 |= (uint8_t)Parity;  
                                    527 ; genPointerGet
      000191 C6 52 34         [ 1]  528 	ld	a, 0x5234
                                    529 ; genOr
      000194 1A 16            [ 1]  530 	or	a, (0x16, sp)
                                    531 ; genPointerSet
      000196 C7 52 34         [ 1]  532 	ld	0x5234, a
                           000199   533 	Sstm8s_uart1$UART1_Init$85 ==.
                                    534 ;	../SPL/src/stm8s_uart1.c: 121: UART1->BRR1 &= (uint8_t)(~UART1_BRR1_DIVM);  
                                    535 ; genPointerGet
                                    536 ; Dummy read
      000199 C6 52 32         [ 1]  537 	ld	a, 0x5232
                                    538 ; genPointerSet
      00019C 35 00 52 32      [ 1]  539 	mov	0x5232+0, #0x00
                           0001A0   540 	Sstm8s_uart1$UART1_Init$86 ==.
                                    541 ;	../SPL/src/stm8s_uart1.c: 123: UART1->BRR2 &= (uint8_t)(~UART1_BRR2_DIVM);  
                                    542 ; genPointerGet
      0001A0 C6 52 33         [ 1]  543 	ld	a, 0x5233
                                    544 ; genAnd
      0001A3 A4 0F            [ 1]  545 	and	a, #0x0f
                                    546 ; genPointerSet
      0001A5 C7 52 33         [ 1]  547 	ld	0x5233, a
                           0001A8   548 	Sstm8s_uart1$UART1_Init$87 ==.
                                    549 ;	../SPL/src/stm8s_uart1.c: 125: UART1->BRR2 &= (uint8_t)(~UART1_BRR2_DIVF);  
                                    550 ; genPointerGet
      0001A8 C6 52 33         [ 1]  551 	ld	a, 0x5233
                                    552 ; genAnd
      0001AB A4 F0            [ 1]  553 	and	a, #0xf0
                                    554 ; genPointerSet
      0001AD C7 52 33         [ 1]  555 	ld	0x5233, a
                           0001B0   556 	Sstm8s_uart1$UART1_Init$88 ==.
                                    557 ;	../SPL/src/stm8s_uart1.c: 128: BaudRate_Mantissa    = ((uint32_t)CLK_GetClockFreq() / (BaudRate << 4));
                                    558 ; genCall
      0001B0 CDr00r00         [ 4]  559 	call	_CLK_GetClockFreq
      0001B3 1F 0C            [ 2]  560 	ldw	(0x0c, sp), x
                                    561 ; genLeftShift
      0001B5 1E 10            [ 2]  562 	ldw	x, (0x10, sp)
      0001B7 1F 06            [ 2]  563 	ldw	(0x06, sp), x
      0001B9 1E 12            [ 2]  564 	ldw	x, (0x12, sp)
      0001BB A6 04            [ 1]  565 	ld	a, #0x04
      0001BD                        566 00364$:
      0001BD 58               [ 2]  567 	sllw	x
      0001BE 09 07            [ 1]  568 	rlc	(0x07, sp)
      0001C0 09 06            [ 1]  569 	rlc	(0x06, sp)
      0001C2 4A               [ 1]  570 	dec	a
      0001C3 26 F8            [ 1]  571 	jrne	00364$
      0001C5                        572 00365$:
      0001C5 1F 08            [ 2]  573 	ldw	(0x08, sp), x
                                    574 ; genIPush
      0001C7 1E 08            [ 2]  575 	ldw	x, (0x08, sp)
      0001C9 89               [ 2]  576 	pushw	x
                           0001CA   577 	Sstm8s_uart1$UART1_Init$89 ==.
      0001CA 1E 08            [ 2]  578 	ldw	x, (0x08, sp)
      0001CC 89               [ 2]  579 	pushw	x
                           0001CD   580 	Sstm8s_uart1$UART1_Init$90 ==.
                                    581 ; genIPush
      0001CD 1E 10            [ 2]  582 	ldw	x, (0x10, sp)
      0001CF 89               [ 2]  583 	pushw	x
                           0001D0   584 	Sstm8s_uart1$UART1_Init$91 ==.
      0001D0 90 89            [ 2]  585 	pushw	y
                           0001D2   586 	Sstm8s_uart1$UART1_Init$92 ==.
                                    587 ; genCall
      0001D2 CDr00r00         [ 4]  588 	call	__divulong
      0001D5 5B 08            [ 2]  589 	addw	sp, #8
                           0001D7   590 	Sstm8s_uart1$UART1_Init$93 ==.
                                    591 ; genAssign
      0001D7 1F 03            [ 2]  592 	ldw	(0x03, sp), x
      0001D9 17 01            [ 2]  593 	ldw	(0x01, sp), y
                           0001DB   594 	Sstm8s_uart1$UART1_Init$94 ==.
                                    595 ;	../SPL/src/stm8s_uart1.c: 129: BaudRate_Mantissa100 = (((uint32_t)CLK_GetClockFreq() * 100) / (BaudRate << 4));
                                    596 ; genCall
      0001DB CDr00r00         [ 4]  597 	call	_CLK_GetClockFreq
                                    598 ; genIPush
      0001DE 89               [ 2]  599 	pushw	x
                           0001DF   600 	Sstm8s_uart1$UART1_Init$95 ==.
      0001DF 90 89            [ 2]  601 	pushw	y
                           0001E1   602 	Sstm8s_uart1$UART1_Init$96 ==.
                                    603 ; genIPush
      0001E1 4B 64            [ 1]  604 	push	#0x64
                           0001E3   605 	Sstm8s_uart1$UART1_Init$97 ==.
      0001E3 5F               [ 1]  606 	clrw	x
      0001E4 89               [ 2]  607 	pushw	x
                           0001E5   608 	Sstm8s_uart1$UART1_Init$98 ==.
      0001E5 4B 00            [ 1]  609 	push	#0x00
                           0001E7   610 	Sstm8s_uart1$UART1_Init$99 ==.
                                    611 ; genCall
      0001E7 CDr00r00         [ 4]  612 	call	__mullong
      0001EA 5B 08            [ 2]  613 	addw	sp, #8
                           0001EC   614 	Sstm8s_uart1$UART1_Init$100 ==.
      0001EC 1F 0C            [ 2]  615 	ldw	(0x0c, sp), x
                                    616 ; genIPush
      0001EE 1E 08            [ 2]  617 	ldw	x, (0x08, sp)
      0001F0 89               [ 2]  618 	pushw	x
                           0001F1   619 	Sstm8s_uart1$UART1_Init$101 ==.
      0001F1 1E 08            [ 2]  620 	ldw	x, (0x08, sp)
      0001F3 89               [ 2]  621 	pushw	x
                           0001F4   622 	Sstm8s_uart1$UART1_Init$102 ==.
                                    623 ; genIPush
      0001F4 1E 10            [ 2]  624 	ldw	x, (0x10, sp)
      0001F6 89               [ 2]  625 	pushw	x
                           0001F7   626 	Sstm8s_uart1$UART1_Init$103 ==.
      0001F7 90 89            [ 2]  627 	pushw	y
                           0001F9   628 	Sstm8s_uart1$UART1_Init$104 ==.
                                    629 ; genCall
      0001F9 CDr00r00         [ 4]  630 	call	__divulong
      0001FC 5B 08            [ 2]  631 	addw	sp, #8
                           0001FE   632 	Sstm8s_uart1$UART1_Init$105 ==.
      0001FE 90 9E            [ 1]  633 	ld	a, yh
                                    634 ; genAssign
      000200 1F 07            [ 2]  635 	ldw	(0x07, sp), x
      000202 6B 05            [ 1]  636 	ld	(0x05, sp), a
      000204 90 9F            [ 1]  637 	ld	a, yl
                           000206   638 	Sstm8s_uart1$UART1_Init$106 ==.
                                    639 ;	../SPL/src/stm8s_uart1.c: 131: UART1->BRR2 |= (uint8_t)((uint8_t)(((BaudRate_Mantissa100 - (BaudRate_Mantissa * 100)) << 4) / 100) & (uint8_t)0x0F); 
                                    640 ; genPointerGet
      000206 AE 52 33         [ 2]  641 	ldw	x, #0x5233
      000209 88               [ 1]  642 	push	a
                           00020A   643 	Sstm8s_uart1$UART1_Init$107 ==.
      00020A F6               [ 1]  644 	ld	a, (x)
      00020B 6B 0A            [ 1]  645 	ld	(0x0a, sp), a
      00020D 84               [ 1]  646 	pop	a
                           00020E   647 	Sstm8s_uart1$UART1_Init$108 ==.
                                    648 ; genIPush
      00020E 88               [ 1]  649 	push	a
                           00020F   650 	Sstm8s_uart1$UART1_Init$109 ==.
      00020F 1E 04            [ 2]  651 	ldw	x, (0x04, sp)
      000211 89               [ 2]  652 	pushw	x
                           000212   653 	Sstm8s_uart1$UART1_Init$110 ==.
      000212 1E 04            [ 2]  654 	ldw	x, (0x04, sp)
      000214 89               [ 2]  655 	pushw	x
                           000215   656 	Sstm8s_uart1$UART1_Init$111 ==.
                                    657 ; genIPush
      000215 4B 64            [ 1]  658 	push	#0x64
                           000217   659 	Sstm8s_uart1$UART1_Init$112 ==.
      000217 5F               [ 1]  660 	clrw	x
      000218 89               [ 2]  661 	pushw	x
                           000219   662 	Sstm8s_uart1$UART1_Init$113 ==.
      000219 4B 00            [ 1]  663 	push	#0x00
                           00021B   664 	Sstm8s_uart1$UART1_Init$114 ==.
                                    665 ; genCall
      00021B CDr00r00         [ 4]  666 	call	__mullong
      00021E 5B 08            [ 2]  667 	addw	sp, #8
                           000220   668 	Sstm8s_uart1$UART1_Init$115 ==.
      000220 1F 0D            [ 2]  669 	ldw	(0x0d, sp), x
      000222 17 0B            [ 2]  670 	ldw	(0x0b, sp), y
      000224 84               [ 1]  671 	pop	a
                           000225   672 	Sstm8s_uart1$UART1_Init$116 ==.
                                    673 ; genMinus
      000225 16 07            [ 2]  674 	ldw	y, (0x07, sp)
      000227 72 F2 0C         [ 2]  675 	subw	y, (0x0c, sp)
      00022A 12 0B            [ 1]  676 	sbc	a, (0x0b, sp)
      00022C 97               [ 1]  677 	ld	xl, a
      00022D 7B 05            [ 1]  678 	ld	a, (0x05, sp)
      00022F 12 0A            [ 1]  679 	sbc	a, (0x0a, sp)
      000231 95               [ 1]  680 	ld	xh, a
                                    681 ; genLeftShift
      000232 A6 04            [ 1]  682 	ld	a, #0x04
      000234                        683 00366$:
      000234 90 58            [ 2]  684 	sllw	y
      000236 59               [ 2]  685 	rlcw	x
      000237 4A               [ 1]  686 	dec	a
      000238 26 FA            [ 1]  687 	jrne	00366$
      00023A                        688 00367$:
                                    689 ; genIPush
      00023A 4B 64            [ 1]  690 	push	#0x64
                           00023C   691 	Sstm8s_uart1$UART1_Init$117 ==.
      00023C 4B 00            [ 1]  692 	push	#0x00
                           00023E   693 	Sstm8s_uart1$UART1_Init$118 ==.
      00023E 4B 00            [ 1]  694 	push	#0x00
                           000240   695 	Sstm8s_uart1$UART1_Init$119 ==.
      000240 4B 00            [ 1]  696 	push	#0x00
                           000242   697 	Sstm8s_uart1$UART1_Init$120 ==.
                                    698 ; genIPush
      000242 90 89            [ 2]  699 	pushw	y
                           000244   700 	Sstm8s_uart1$UART1_Init$121 ==.
      000244 89               [ 2]  701 	pushw	x
                           000245   702 	Sstm8s_uart1$UART1_Init$122 ==.
                                    703 ; genCall
      000245 CDr00r00         [ 4]  704 	call	__divulong
      000248 5B 08            [ 2]  705 	addw	sp, #8
                           00024A   706 	Sstm8s_uart1$UART1_Init$123 ==.
      00024A 9F               [ 1]  707 	ld	a, xl
                                    708 ; genCast
                                    709 ; genAssign
                                    710 ; genAnd
      00024B A4 0F            [ 1]  711 	and	a, #0x0f
                                    712 ; genOr
      00024D 1A 09            [ 1]  713 	or	a, (0x09, sp)
                                    714 ; genPointerSet
      00024F C7 52 33         [ 1]  715 	ld	0x5233, a
                           000252   716 	Sstm8s_uart1$UART1_Init$124 ==.
                                    717 ;	../SPL/src/stm8s_uart1.c: 133: UART1->BRR2 |= (uint8_t)((BaudRate_Mantissa >> 4) & (uint8_t)0xF0); 
                                    718 ; genPointerGet
      000252 C6 52 33         [ 1]  719 	ld	a, 0x5233
      000255 6B 0D            [ 1]  720 	ld	(0x0d, sp), a
                                    721 ; genCast
                                    722 ; genAssign
      000257 1E 03            [ 2]  723 	ldw	x, (0x03, sp)
                                    724 ; genRightShiftLiteral
      000259 A6 10            [ 1]  725 	ld	a, #0x10
      00025B 62               [ 2]  726 	div	x, a
      00025C 90 93            [ 1]  727 	ldw	y, x
      00025E 9F               [ 1]  728 	ld	a, xl
                                    729 ; genCast
                                    730 ; genAssign
                                    731 ; genAnd
      00025F A4 F0            [ 1]  732 	and	a, #0xf0
                                    733 ; genOr
      000261 1A 0D            [ 1]  734 	or	a, (0x0d, sp)
                                    735 ; genPointerSet
      000263 C7 52 33         [ 1]  736 	ld	0x5233, a
                           000266   737 	Sstm8s_uart1$UART1_Init$125 ==.
                                    738 ;	../SPL/src/stm8s_uart1.c: 135: UART1->BRR1 |= (uint8_t)BaudRate_Mantissa;           
                                    739 ; genPointerGet
      000266 C6 52 32         [ 1]  740 	ld	a, 0x5232
      000269 6B 0D            [ 1]  741 	ld	(0x0d, sp), a
                                    742 ; genCast
                                    743 ; genAssign
      00026B 7B 04            [ 1]  744 	ld	a, (0x04, sp)
                                    745 ; genOr
      00026D 1A 0D            [ 1]  746 	or	a, (0x0d, sp)
                                    747 ; genPointerSet
      00026F C7 52 32         [ 1]  748 	ld	0x5232, a
                           000272   749 	Sstm8s_uart1$UART1_Init$126 ==.
                                    750 ;	../SPL/src/stm8s_uart1.c: 138: UART1->CR2 &= (uint8_t)~(UART1_CR2_TEN | UART1_CR2_REN); 
                                    751 ; genPointerGet
      000272 C6 52 35         [ 1]  752 	ld	a, 0x5235
                                    753 ; genAnd
      000275 A4 F3            [ 1]  754 	and	a, #0xf3
                                    755 ; genPointerSet
      000277 C7 52 35         [ 1]  756 	ld	0x5235, a
                           00027A   757 	Sstm8s_uart1$UART1_Init$127 ==.
                                    758 ;	../SPL/src/stm8s_uart1.c: 140: UART1->CR3 &= (uint8_t)~(UART1_CR3_CPOL | UART1_CR3_CPHA | UART1_CR3_LBCL); 
                                    759 ; genPointerGet
      00027A C6 52 36         [ 1]  760 	ld	a, 0x5236
                                    761 ; genAnd
      00027D A4 F8            [ 1]  762 	and	a, #0xf8
                                    763 ; genPointerSet
      00027F C7 52 36         [ 1]  764 	ld	0x5236, a
                           000282   765 	Sstm8s_uart1$UART1_Init$128 ==.
                                    766 ;	../SPL/src/stm8s_uart1.c: 142: UART1->CR3 |= (uint8_t)((uint8_t)SyncMode & (uint8_t)(UART1_CR3_CPOL | 
                                    767 ; genPointerGet
      000282 C6 52 36         [ 1]  768 	ld	a, 0x5236
      000285 6B 0D            [ 1]  769 	ld	(0x0d, sp), a
                                    770 ; genAnd
      000287 7B 17            [ 1]  771 	ld	a, (0x17, sp)
      000289 A4 07            [ 1]  772 	and	a, #0x07
                                    773 ; genOr
      00028B 1A 0D            [ 1]  774 	or	a, (0x0d, sp)
                                    775 ; genPointerSet
      00028D C7 52 36         [ 1]  776 	ld	0x5236, a
                           000290   777 	Sstm8s_uart1$UART1_Init$129 ==.
                                    778 ;	../SPL/src/stm8s_uart1.c: 138: UART1->CR2 &= (uint8_t)~(UART1_CR2_TEN | UART1_CR2_REN); 
                                    779 ; genPointerGet
      000290 C6 52 35         [ 1]  780 	ld	a, 0x5235
                           000293   781 	Sstm8s_uart1$UART1_Init$130 ==.
                                    782 ;	../SPL/src/stm8s_uart1.c: 145: if ((uint8_t)(Mode & UART1_MODE_TX_ENABLE))
                                    783 ; genAnd
      000293 88               [ 1]  784 	push	a
                           000294   785 	Sstm8s_uart1$UART1_Init$131 ==.
      000294 7B 19            [ 1]  786 	ld	a, (0x19, sp)
      000296 A5 04            [ 1]  787 	bcp	a, #0x04
      000298 84               [ 1]  788 	pop	a
                           000299   789 	Sstm8s_uart1$UART1_Init$132 ==.
      000299 26 03            [ 1]  790 	jrne	00368$
      00029B CCr02rA6         [ 2]  791 	jp	00102$
      00029E                        792 00368$:
                                    793 ; skipping generated iCode
                           00029E   794 	Sstm8s_uart1$UART1_Init$133 ==.
                           00029E   795 	Sstm8s_uart1$UART1_Init$134 ==.
                                    796 ;	../SPL/src/stm8s_uart1.c: 148: UART1->CR2 |= (uint8_t)UART1_CR2_TEN;  
                                    797 ; genOr
      00029E AA 08            [ 1]  798 	or	a, #0x08
                                    799 ; genPointerSet
      0002A0 C7 52 35         [ 1]  800 	ld	0x5235, a
                           0002A3   801 	Sstm8s_uart1$UART1_Init$135 ==.
                                    802 ; genGoto
      0002A3 CCr02rAB         [ 2]  803 	jp	00103$
                                    804 ; genLabel
      0002A6                        805 00102$:
                           0002A6   806 	Sstm8s_uart1$UART1_Init$136 ==.
                           0002A6   807 	Sstm8s_uart1$UART1_Init$137 ==.
                                    808 ;	../SPL/src/stm8s_uart1.c: 153: UART1->CR2 &= (uint8_t)(~UART1_CR2_TEN);  
                                    809 ; genAnd
      0002A6 A4 F7            [ 1]  810 	and	a, #0xf7
                                    811 ; genPointerSet
      0002A8 C7 52 35         [ 1]  812 	ld	0x5235, a
                           0002AB   813 	Sstm8s_uart1$UART1_Init$138 ==.
                                    814 ; genLabel
      0002AB                        815 00103$:
                           0002AB   816 	Sstm8s_uart1$UART1_Init$139 ==.
                                    817 ;	../SPL/src/stm8s_uart1.c: 138: UART1->CR2 &= (uint8_t)~(UART1_CR2_TEN | UART1_CR2_REN); 
                                    818 ; genPointerGet
      0002AB C6 52 35         [ 1]  819 	ld	a, 0x5235
                           0002AE   820 	Sstm8s_uart1$UART1_Init$140 ==.
                                    821 ;	../SPL/src/stm8s_uart1.c: 155: if ((uint8_t)(Mode & UART1_MODE_RX_ENABLE))
                                    822 ; genAnd
      0002AE 88               [ 1]  823 	push	a
                           0002AF   824 	Sstm8s_uart1$UART1_Init$141 ==.
      0002AF 7B 19            [ 1]  825 	ld	a, (0x19, sp)
      0002B1 A5 08            [ 1]  826 	bcp	a, #0x08
      0002B3 84               [ 1]  827 	pop	a
                           0002B4   828 	Sstm8s_uart1$UART1_Init$142 ==.
      0002B4 26 03            [ 1]  829 	jrne	00369$
      0002B6 CCr02rC1         [ 2]  830 	jp	00105$
      0002B9                        831 00369$:
                                    832 ; skipping generated iCode
                           0002B9   833 	Sstm8s_uart1$UART1_Init$143 ==.
                           0002B9   834 	Sstm8s_uart1$UART1_Init$144 ==.
                                    835 ;	../SPL/src/stm8s_uart1.c: 158: UART1->CR2 |= (uint8_t)UART1_CR2_REN;  
                                    836 ; genOr
      0002B9 AA 04            [ 1]  837 	or	a, #0x04
                                    838 ; genPointerSet
      0002BB C7 52 35         [ 1]  839 	ld	0x5235, a
                           0002BE   840 	Sstm8s_uart1$UART1_Init$145 ==.
                                    841 ; genGoto
      0002BE CCr02rC6         [ 2]  842 	jp	00106$
                                    843 ; genLabel
      0002C1                        844 00105$:
                           0002C1   845 	Sstm8s_uart1$UART1_Init$146 ==.
                           0002C1   846 	Sstm8s_uart1$UART1_Init$147 ==.
                                    847 ;	../SPL/src/stm8s_uart1.c: 163: UART1->CR2 &= (uint8_t)(~UART1_CR2_REN);  
                                    848 ; genAnd
      0002C1 A4 FB            [ 1]  849 	and	a, #0xfb
                                    850 ; genPointerSet
      0002C3 C7 52 35         [ 1]  851 	ld	0x5235, a
                           0002C6   852 	Sstm8s_uart1$UART1_Init$148 ==.
                                    853 ; genLabel
      0002C6                        854 00106$:
                           0002C6   855 	Sstm8s_uart1$UART1_Init$149 ==.
                                    856 ;	../SPL/src/stm8s_uart1.c: 111: UART1->CR3 &= (uint8_t)(~UART1_CR3_STOP);  
                                    857 ; genPointerGet
      0002C6 C6 52 36         [ 1]  858 	ld	a, 0x5236
                           0002C9   859 	Sstm8s_uart1$UART1_Init$150 ==.
                                    860 ;	../SPL/src/stm8s_uart1.c: 167: if ((uint8_t)(SyncMode & UART1_SYNCMODE_CLOCK_DISABLE))
                                    861 ; genAnd
      0002C9 0D 17            [ 1]  862 	tnz	(0x17, sp)
      0002CB 2B 03            [ 1]  863 	jrmi	00370$
      0002CD CCr02rD8         [ 2]  864 	jp	00108$
      0002D0                        865 00370$:
                                    866 ; skipping generated iCode
                           0002D0   867 	Sstm8s_uart1$UART1_Init$151 ==.
                           0002D0   868 	Sstm8s_uart1$UART1_Init$152 ==.
                                    869 ;	../SPL/src/stm8s_uart1.c: 170: UART1->CR3 &= (uint8_t)(~UART1_CR3_CKEN); 
                                    870 ; genAnd
      0002D0 A4 F7            [ 1]  871 	and	a, #0xf7
                                    872 ; genPointerSet
      0002D2 C7 52 36         [ 1]  873 	ld	0x5236, a
                           0002D5   874 	Sstm8s_uart1$UART1_Init$153 ==.
                                    875 ; genGoto
      0002D5 CCr02rE5         [ 2]  876 	jp	00110$
                                    877 ; genLabel
      0002D8                        878 00108$:
                           0002D8   879 	Sstm8s_uart1$UART1_Init$154 ==.
                           0002D8   880 	Sstm8s_uart1$UART1_Init$155 ==.
                                    881 ;	../SPL/src/stm8s_uart1.c: 174: UART1->CR3 |= (uint8_t)((uint8_t)SyncMode & UART1_CR3_CKEN);
                                    882 ; genAnd
      0002D8 88               [ 1]  883 	push	a
                           0002D9   884 	Sstm8s_uart1$UART1_Init$156 ==.
      0002D9 7B 18            [ 1]  885 	ld	a, (0x18, sp)
      0002DB A4 08            [ 1]  886 	and	a, #0x08
      0002DD 6B 0E            [ 1]  887 	ld	(0x0e, sp), a
      0002DF 84               [ 1]  888 	pop	a
                           0002E0   889 	Sstm8s_uart1$UART1_Init$157 ==.
                                    890 ; genOr
      0002E0 1A 0D            [ 1]  891 	or	a, (0x0d, sp)
                                    892 ; genPointerSet
      0002E2 C7 52 36         [ 1]  893 	ld	0x5236, a
                           0002E5   894 	Sstm8s_uart1$UART1_Init$158 ==.
                                    895 ; genLabel
      0002E5                        896 00110$:
                           0002E5   897 	Sstm8s_uart1$UART1_Init$159 ==.
                                    898 ;	../SPL/src/stm8s_uart1.c: 176: }
                                    899 ; genEndFunction
      0002E5 5B 0D            [ 2]  900 	addw	sp, #13
                           0002E7   901 	Sstm8s_uart1$UART1_Init$160 ==.
                           0002E7   902 	Sstm8s_uart1$UART1_Init$161 ==.
                           0002E7   903 	XG$UART1_Init$0$0 ==.
      0002E7 81               [ 4]  904 	ret
                           0002E8   905 	Sstm8s_uart1$UART1_Init$162 ==.
                           0002E8   906 	Sstm8s_uart1$UART1_Cmd$163 ==.
                                    907 ;	../SPL/src/stm8s_uart1.c: 184: void UART1_Cmd(FunctionalState NewState)
                                    908 ; genLabel
                                    909 ;	-----------------------------------------
                                    910 ;	 function UART1_Cmd
                                    911 ;	-----------------------------------------
                                    912 ;	Register assignment is optimal.
                                    913 ;	Stack space usage: 0 bytes.
      0002E8                        914 _UART1_Cmd:
                           0002E8   915 	Sstm8s_uart1$UART1_Cmd$164 ==.
                           0002E8   916 	Sstm8s_uart1$UART1_Cmd$165 ==.
                                    917 ;	../SPL/src/stm8s_uart1.c: 189: UART1->CR1 &= (uint8_t)(~UART1_CR1_UARTD); 
                                    918 ; genPointerGet
      0002E8 C6 52 34         [ 1]  919 	ld	a, 0x5234
                           0002EB   920 	Sstm8s_uart1$UART1_Cmd$166 ==.
                                    921 ;	../SPL/src/stm8s_uart1.c: 186: if (NewState != DISABLE)
                                    922 ; genIfx
      0002EB 0D 03            [ 1]  923 	tnz	(0x03, sp)
      0002ED 26 03            [ 1]  924 	jrne	00111$
      0002EF CCr02rFA         [ 2]  925 	jp	00102$
      0002F2                        926 00111$:
                           0002F2   927 	Sstm8s_uart1$UART1_Cmd$167 ==.
                           0002F2   928 	Sstm8s_uart1$UART1_Cmd$168 ==.
                                    929 ;	../SPL/src/stm8s_uart1.c: 189: UART1->CR1 &= (uint8_t)(~UART1_CR1_UARTD); 
                                    930 ; genAnd
      0002F2 A4 DF            [ 1]  931 	and	a, #0xdf
                                    932 ; genPointerSet
      0002F4 C7 52 34         [ 1]  933 	ld	0x5234, a
                           0002F7   934 	Sstm8s_uart1$UART1_Cmd$169 ==.
                                    935 ; genGoto
      0002F7 CCr02rFF         [ 2]  936 	jp	00104$
                                    937 ; genLabel
      0002FA                        938 00102$:
                           0002FA   939 	Sstm8s_uart1$UART1_Cmd$170 ==.
                           0002FA   940 	Sstm8s_uart1$UART1_Cmd$171 ==.
                                    941 ;	../SPL/src/stm8s_uart1.c: 194: UART1->CR1 |= UART1_CR1_UARTD;  
                                    942 ; genOr
      0002FA AA 20            [ 1]  943 	or	a, #0x20
                                    944 ; genPointerSet
      0002FC C7 52 34         [ 1]  945 	ld	0x5234, a
                           0002FF   946 	Sstm8s_uart1$UART1_Cmd$172 ==.
                                    947 ; genLabel
      0002FF                        948 00104$:
                           0002FF   949 	Sstm8s_uart1$UART1_Cmd$173 ==.
                                    950 ;	../SPL/src/stm8s_uart1.c: 196: }
                                    951 ; genEndFunction
                           0002FF   952 	Sstm8s_uart1$UART1_Cmd$174 ==.
                           0002FF   953 	XG$UART1_Cmd$0$0 ==.
      0002FF 81               [ 4]  954 	ret
                           000300   955 	Sstm8s_uart1$UART1_Cmd$175 ==.
                           000300   956 	Sstm8s_uart1$UART1_ITConfig$176 ==.
                                    957 ;	../SPL/src/stm8s_uart1.c: 211: void UART1_ITConfig(UART1_IT_TypeDef UART1_IT, FunctionalState NewState)
                                    958 ; genLabel
                                    959 ;	-----------------------------------------
                                    960 ;	 function UART1_ITConfig
                                    961 ;	-----------------------------------------
                                    962 ;	Register assignment might be sub-optimal.
                                    963 ;	Stack space usage: 2 bytes.
      000300                        964 _UART1_ITConfig:
                           000300   965 	Sstm8s_uart1$UART1_ITConfig$177 ==.
      000300 89               [ 2]  966 	pushw	x
                           000301   967 	Sstm8s_uart1$UART1_ITConfig$178 ==.
                           000301   968 	Sstm8s_uart1$UART1_ITConfig$179 ==.
                                    969 ;	../SPL/src/stm8s_uart1.c: 216: assert_param(IS_UART1_CONFIG_IT_OK(UART1_IT));
                                    970 ; genCast
                                    971 ; genAssign
      000301 1E 05            [ 2]  972 	ldw	x, (0x05, sp)
                                    973 ; genCmpEQorNE
      000303 A3 01 00         [ 2]  974 	cpw	x, #0x0100
      000306 26 03            [ 1]  975 	jrne	00206$
      000308 CCr03r46         [ 2]  976 	jp	00119$
      00030B                        977 00206$:
                           00030B   978 	Sstm8s_uart1$UART1_ITConfig$180 ==.
                                    979 ; skipping generated iCode
                                    980 ; genCmpEQorNE
      00030B A3 02 77         [ 2]  981 	cpw	x, #0x0277
      00030E 26 03            [ 1]  982 	jrne	00209$
      000310 CCr03r46         [ 2]  983 	jp	00119$
      000313                        984 00209$:
                           000313   985 	Sstm8s_uart1$UART1_ITConfig$181 ==.
                                    986 ; skipping generated iCode
                                    987 ; genCmpEQorNE
      000313 A3 02 66         [ 2]  988 	cpw	x, #0x0266
      000316 26 03            [ 1]  989 	jrne	00212$
      000318 CCr03r46         [ 2]  990 	jp	00119$
      00031B                        991 00212$:
                           00031B   992 	Sstm8s_uart1$UART1_ITConfig$182 ==.
                                    993 ; skipping generated iCode
                                    994 ; genCmpEQorNE
      00031B A3 02 05         [ 2]  995 	cpw	x, #0x0205
      00031E 26 03            [ 1]  996 	jrne	00215$
      000320 CCr03r46         [ 2]  997 	jp	00119$
      000323                        998 00215$:
                           000323   999 	Sstm8s_uart1$UART1_ITConfig$183 ==.
                                   1000 ; skipping generated iCode
                                   1001 ; genCmpEQorNE
      000323 A3 02 44         [ 2] 1002 	cpw	x, #0x0244
      000326 26 03            [ 1] 1003 	jrne	00218$
      000328 CCr03r46         [ 2] 1004 	jp	00119$
      00032B                       1005 00218$:
                           00032B  1006 	Sstm8s_uart1$UART1_ITConfig$184 ==.
                                   1007 ; skipping generated iCode
                                   1008 ; genCmpEQorNE
      00032B A3 03 46         [ 2] 1009 	cpw	x, #0x0346
      00032E 26 03            [ 1] 1010 	jrne	00221$
      000330 CCr03r46         [ 2] 1011 	jp	00119$
      000333                       1012 00221$:
                           000333  1013 	Sstm8s_uart1$UART1_ITConfig$185 ==.
                                   1014 ; skipping generated iCode
                                   1015 ; skipping iCode since result will be rematerialized
                                   1016 ; skipping iCode since result will be rematerialized
                                   1017 ; genIPush
      000333 89               [ 2] 1018 	pushw	x
                           000334  1019 	Sstm8s_uart1$UART1_ITConfig$186 ==.
      000334 4B D8            [ 1] 1020 	push	#0xd8
                           000336  1021 	Sstm8s_uart1$UART1_ITConfig$187 ==.
      000336 4B 00            [ 1] 1022 	push	#0x00
                           000338  1023 	Sstm8s_uart1$UART1_ITConfig$188 ==.
      000338 4B 00            [ 1] 1024 	push	#0x00
                           00033A  1025 	Sstm8s_uart1$UART1_ITConfig$189 ==.
      00033A 4B 00            [ 1] 1026 	push	#0x00
                           00033C  1027 	Sstm8s_uart1$UART1_ITConfig$190 ==.
                                   1028 ; genIPush
      00033C 4Br00            [ 1] 1029 	push	#<(___str_0+0)
                           00033E  1030 	Sstm8s_uart1$UART1_ITConfig$191 ==.
      00033E 4Bs00            [ 1] 1031 	push	#((___str_0+0) >> 8)
                           000340  1032 	Sstm8s_uart1$UART1_ITConfig$192 ==.
                                   1033 ; genCall
      000340 CDr00r00         [ 4] 1034 	call	_assert_failed
      000343 5B 06            [ 2] 1035 	addw	sp, #6
                           000345  1036 	Sstm8s_uart1$UART1_ITConfig$193 ==.
      000345 85               [ 2] 1037 	popw	x
                           000346  1038 	Sstm8s_uart1$UART1_ITConfig$194 ==.
                                   1039 ; genLabel
      000346                       1040 00119$:
                           000346  1041 	Sstm8s_uart1$UART1_ITConfig$195 ==.
                                   1042 ;	../SPL/src/stm8s_uart1.c: 217: assert_param(IS_FUNCTIONALSTATE_OK(NewState));
                                   1043 ; genIfx
      000346 0D 07            [ 1] 1044 	tnz	(0x07, sp)
      000348 26 03            [ 1] 1045 	jrne	00223$
      00034A CCr03r68         [ 2] 1046 	jp	00136$
      00034D                       1047 00223$:
                                   1048 ; genCmpEQorNE
      00034D 7B 07            [ 1] 1049 	ld	a, (0x07, sp)
      00034F 4A               [ 1] 1050 	dec	a
      000350 26 03            [ 1] 1051 	jrne	00225$
      000352 CCr03r68         [ 2] 1052 	jp	00136$
      000355                       1053 00225$:
                           000355  1054 	Sstm8s_uart1$UART1_ITConfig$196 ==.
                                   1055 ; skipping generated iCode
                                   1056 ; skipping iCode since result will be rematerialized
                                   1057 ; skipping iCode since result will be rematerialized
                                   1058 ; genIPush
      000355 89               [ 2] 1059 	pushw	x
                           000356  1060 	Sstm8s_uart1$UART1_ITConfig$197 ==.
      000356 4B D9            [ 1] 1061 	push	#0xd9
                           000358  1062 	Sstm8s_uart1$UART1_ITConfig$198 ==.
      000358 4B 00            [ 1] 1063 	push	#0x00
                           00035A  1064 	Sstm8s_uart1$UART1_ITConfig$199 ==.
      00035A 4B 00            [ 1] 1065 	push	#0x00
                           00035C  1066 	Sstm8s_uart1$UART1_ITConfig$200 ==.
      00035C 4B 00            [ 1] 1067 	push	#0x00
                           00035E  1068 	Sstm8s_uart1$UART1_ITConfig$201 ==.
                                   1069 ; genIPush
      00035E 4Br00            [ 1] 1070 	push	#<(___str_0+0)
                           000360  1071 	Sstm8s_uart1$UART1_ITConfig$202 ==.
      000360 4Bs00            [ 1] 1072 	push	#((___str_0+0) >> 8)
                           000362  1073 	Sstm8s_uart1$UART1_ITConfig$203 ==.
                                   1074 ; genCall
      000362 CDr00r00         [ 4] 1075 	call	_assert_failed
      000365 5B 06            [ 2] 1076 	addw	sp, #6
                           000367  1077 	Sstm8s_uart1$UART1_ITConfig$204 ==.
      000367 85               [ 2] 1078 	popw	x
                           000368  1079 	Sstm8s_uart1$UART1_ITConfig$205 ==.
                                   1080 ; genLabel
      000368                       1081 00136$:
                           000368  1082 	Sstm8s_uart1$UART1_ITConfig$206 ==.
                                   1083 ;	../SPL/src/stm8s_uart1.c: 220: uartreg = (uint8_t)((uint16_t)UART1_IT >> 0x08);
                                   1084 ; genRightShiftLiteral
      000368 4F               [ 1] 1085 	clr	a
                                   1086 ; genCast
                                   1087 ; genAssign
                           000369  1088 	Sstm8s_uart1$UART1_ITConfig$207 ==.
                                   1089 ;	../SPL/src/stm8s_uart1.c: 222: itpos = (uint8_t)((uint8_t)1 << (uint8_t)((uint8_t)UART1_IT & (uint8_t)0x0F));
                                   1090 ; genCast
                                   1091 ; genAssign
      000369 7B 06            [ 1] 1092 	ld	a, (0x06, sp)
                                   1093 ; genAnd
      00036B A4 0F            [ 1] 1094 	and	a, #0x0f
                                   1095 ; genLeftShift
      00036D 88               [ 1] 1096 	push	a
                           00036E  1097 	Sstm8s_uart1$UART1_ITConfig$208 ==.
      00036E A6 01            [ 1] 1098 	ld	a, #0x01
      000370 6B 03            [ 1] 1099 	ld	(0x03, sp), a
      000372 84               [ 1] 1100 	pop	a
                           000373  1101 	Sstm8s_uart1$UART1_ITConfig$209 ==.
      000373 4D               [ 1] 1102 	tnz	a
      000374 27 05            [ 1] 1103 	jreq	00228$
      000376                       1104 00227$:
      000376 08 02            [ 1] 1105 	sll	(0x02, sp)
      000378 4A               [ 1] 1106 	dec	a
      000379 26 FB            [ 1] 1107 	jrne	00227$
      00037B                       1108 00228$:
                           00037B  1109 	Sstm8s_uart1$UART1_ITConfig$210 ==.
                                   1110 ;	../SPL/src/stm8s_uart1.c: 227: if (uartreg == 0x01)
                                   1111 ; genCmpEQorNE
      00037B 9E               [ 1] 1112 	ld	a, xh
      00037C 4A               [ 1] 1113 	dec	a
      00037D 26 07            [ 1] 1114 	jrne	00230$
      00037F A6 01            [ 1] 1115 	ld	a, #0x01
      000381 6B 01            [ 1] 1116 	ld	(0x01, sp), a
      000383 CCr03r88         [ 2] 1117 	jp	00231$
      000386                       1118 00230$:
      000386 0F 01            [ 1] 1119 	clr	(0x01, sp)
      000388                       1120 00231$:
                           000388  1121 	Sstm8s_uart1$UART1_ITConfig$211 ==.
                           000388  1122 	Sstm8s_uart1$UART1_ITConfig$212 ==.
                                   1123 ;	../SPL/src/stm8s_uart1.c: 231: else if (uartreg == 0x02)
                                   1124 ; genCmpEQorNE
      000388 9E               [ 1] 1125 	ld	a, xh
      000389 A1 02            [ 1] 1126 	cp	a, #0x02
      00038B 26 05            [ 1] 1127 	jrne	00233$
      00038D A6 01            [ 1] 1128 	ld	a, #0x01
      00038F CCr03r93         [ 2] 1129 	jp	00234$
      000392                       1130 00233$:
      000392 4F               [ 1] 1131 	clr	a
      000393                       1132 00234$:
                           000393  1133 	Sstm8s_uart1$UART1_ITConfig$213 ==.
                           000393  1134 	Sstm8s_uart1$UART1_ITConfig$214 ==.
                                   1135 ;	../SPL/src/stm8s_uart1.c: 224: if (NewState != DISABLE)
                                   1136 ; genIfx
      000393 0D 07            [ 1] 1137 	tnz	(0x07, sp)
      000395 26 03            [ 1] 1138 	jrne	00235$
      000397 CCr03rC8         [ 2] 1139 	jp	00114$
      00039A                       1140 00235$:
                           00039A  1141 	Sstm8s_uart1$UART1_ITConfig$215 ==.
                           00039A  1142 	Sstm8s_uart1$UART1_ITConfig$216 ==.
                                   1143 ;	../SPL/src/stm8s_uart1.c: 227: if (uartreg == 0x01)
                                   1144 ; genIfx
      00039A 0D 01            [ 1] 1145 	tnz	(0x01, sp)
      00039C 26 03            [ 1] 1146 	jrne	00236$
      00039E CCr03rAC         [ 2] 1147 	jp	00105$
      0003A1                       1148 00236$:
                           0003A1  1149 	Sstm8s_uart1$UART1_ITConfig$217 ==.
                           0003A1  1150 	Sstm8s_uart1$UART1_ITConfig$218 ==.
                                   1151 ;	../SPL/src/stm8s_uart1.c: 229: UART1->CR1 |= itpos;
                                   1152 ; genPointerGet
      0003A1 C6 52 34         [ 1] 1153 	ld	a, 0x5234
                                   1154 ; genOr
      0003A4 1A 02            [ 1] 1155 	or	a, (0x02, sp)
                                   1156 ; genPointerSet
      0003A6 C7 52 34         [ 1] 1157 	ld	0x5234, a
                           0003A9  1158 	Sstm8s_uart1$UART1_ITConfig$219 ==.
                                   1159 ; genGoto
      0003A9 CCr03rF7         [ 2] 1160 	jp	00116$
                                   1161 ; genLabel
      0003AC                       1162 00105$:
                           0003AC  1163 	Sstm8s_uart1$UART1_ITConfig$220 ==.
                                   1164 ;	../SPL/src/stm8s_uart1.c: 231: else if (uartreg == 0x02)
                                   1165 ; genIfx
      0003AC 4D               [ 1] 1166 	tnz	a
      0003AD 26 03            [ 1] 1167 	jrne	00237$
      0003AF CCr03rBD         [ 2] 1168 	jp	00102$
      0003B2                       1169 00237$:
                           0003B2  1170 	Sstm8s_uart1$UART1_ITConfig$221 ==.
                           0003B2  1171 	Sstm8s_uart1$UART1_ITConfig$222 ==.
                                   1172 ;	../SPL/src/stm8s_uart1.c: 233: UART1->CR2 |= itpos;
                                   1173 ; genPointerGet
      0003B2 C6 52 35         [ 1] 1174 	ld	a, 0x5235
                                   1175 ; genOr
      0003B5 1A 02            [ 1] 1176 	or	a, (0x02, sp)
                                   1177 ; genPointerSet
      0003B7 C7 52 35         [ 1] 1178 	ld	0x5235, a
                           0003BA  1179 	Sstm8s_uart1$UART1_ITConfig$223 ==.
                                   1180 ; genGoto
      0003BA CCr03rF7         [ 2] 1181 	jp	00116$
                                   1182 ; genLabel
      0003BD                       1183 00102$:
                           0003BD  1184 	Sstm8s_uart1$UART1_ITConfig$224 ==.
                           0003BD  1185 	Sstm8s_uart1$UART1_ITConfig$225 ==.
                                   1186 ;	../SPL/src/stm8s_uart1.c: 237: UART1->CR4 |= itpos;
                                   1187 ; genPointerGet
      0003BD C6 52 37         [ 1] 1188 	ld	a, 0x5237
                                   1189 ; genOr
      0003C0 1A 02            [ 1] 1190 	or	a, (0x02, sp)
                                   1191 ; genPointerSet
      0003C2 C7 52 37         [ 1] 1192 	ld	0x5237, a
                           0003C5  1193 	Sstm8s_uart1$UART1_ITConfig$226 ==.
                                   1194 ; genGoto
      0003C5 CCr03rF7         [ 2] 1195 	jp	00116$
                                   1196 ; genLabel
      0003C8                       1197 00114$:
                           0003C8  1198 	Sstm8s_uart1$UART1_ITConfig$227 ==.
                                   1199 ;	../SPL/src/stm8s_uart1.c: 245: UART1->CR1 &= (uint8_t)(~itpos);
                                   1200 ; genCpl
      0003C8 88               [ 1] 1201 	push	a
                           0003C9  1202 	Sstm8s_uart1$UART1_ITConfig$228 ==.
      0003C9 03 03            [ 1] 1203 	cpl	(0x03, sp)
      0003CB 84               [ 1] 1204 	pop	a
                           0003CC  1205 	Sstm8s_uart1$UART1_ITConfig$229 ==.
                           0003CC  1206 	Sstm8s_uart1$UART1_ITConfig$230 ==.
                           0003CC  1207 	Sstm8s_uart1$UART1_ITConfig$231 ==.
                                   1208 ;	../SPL/src/stm8s_uart1.c: 243: if (uartreg == 0x01)
                                   1209 ; genIfx
      0003CC 0D 01            [ 1] 1210 	tnz	(0x01, sp)
      0003CE 26 03            [ 1] 1211 	jrne	00238$
      0003D0 CCr03rDE         [ 2] 1212 	jp	00111$
      0003D3                       1213 00238$:
                           0003D3  1214 	Sstm8s_uart1$UART1_ITConfig$232 ==.
                           0003D3  1215 	Sstm8s_uart1$UART1_ITConfig$233 ==.
                                   1216 ;	../SPL/src/stm8s_uart1.c: 245: UART1->CR1 &= (uint8_t)(~itpos);
                                   1217 ; genPointerGet
      0003D3 C6 52 34         [ 1] 1218 	ld	a, 0x5234
                                   1219 ; genAnd
      0003D6 14 02            [ 1] 1220 	and	a, (0x02, sp)
                                   1221 ; genPointerSet
      0003D8 C7 52 34         [ 1] 1222 	ld	0x5234, a
                           0003DB  1223 	Sstm8s_uart1$UART1_ITConfig$234 ==.
                                   1224 ; genGoto
      0003DB CCr03rF7         [ 2] 1225 	jp	00116$
                                   1226 ; genLabel
      0003DE                       1227 00111$:
                           0003DE  1228 	Sstm8s_uart1$UART1_ITConfig$235 ==.
                                   1229 ;	../SPL/src/stm8s_uart1.c: 247: else if (uartreg == 0x02)
                                   1230 ; genIfx
      0003DE 4D               [ 1] 1231 	tnz	a
      0003DF 26 03            [ 1] 1232 	jrne	00239$
      0003E1 CCr03rEF         [ 2] 1233 	jp	00108$
      0003E4                       1234 00239$:
                           0003E4  1235 	Sstm8s_uart1$UART1_ITConfig$236 ==.
                           0003E4  1236 	Sstm8s_uart1$UART1_ITConfig$237 ==.
                                   1237 ;	../SPL/src/stm8s_uart1.c: 249: UART1->CR2 &= (uint8_t)(~itpos);
                                   1238 ; genPointerGet
      0003E4 C6 52 35         [ 1] 1239 	ld	a, 0x5235
                                   1240 ; genAnd
      0003E7 14 02            [ 1] 1241 	and	a, (0x02, sp)
                                   1242 ; genPointerSet
      0003E9 C7 52 35         [ 1] 1243 	ld	0x5235, a
                           0003EC  1244 	Sstm8s_uart1$UART1_ITConfig$238 ==.
                                   1245 ; genGoto
      0003EC CCr03rF7         [ 2] 1246 	jp	00116$
                                   1247 ; genLabel
      0003EF                       1248 00108$:
                           0003EF  1249 	Sstm8s_uart1$UART1_ITConfig$239 ==.
                           0003EF  1250 	Sstm8s_uart1$UART1_ITConfig$240 ==.
                                   1251 ;	../SPL/src/stm8s_uart1.c: 253: UART1->CR4 &= (uint8_t)(~itpos);
                                   1252 ; genPointerGet
      0003EF C6 52 37         [ 1] 1253 	ld	a, 0x5237
                                   1254 ; genAnd
      0003F2 14 02            [ 1] 1255 	and	a, (0x02, sp)
                                   1256 ; genPointerSet
      0003F4 C7 52 37         [ 1] 1257 	ld	0x5237, a
                           0003F7  1258 	Sstm8s_uart1$UART1_ITConfig$241 ==.
                                   1259 ; genLabel
      0003F7                       1260 00116$:
                           0003F7  1261 	Sstm8s_uart1$UART1_ITConfig$242 ==.
                                   1262 ;	../SPL/src/stm8s_uart1.c: 257: }
                                   1263 ; genEndFunction
      0003F7 85               [ 2] 1264 	popw	x
                           0003F8  1265 	Sstm8s_uart1$UART1_ITConfig$243 ==.
                           0003F8  1266 	Sstm8s_uart1$UART1_ITConfig$244 ==.
                           0003F8  1267 	XG$UART1_ITConfig$0$0 ==.
      0003F8 81               [ 4] 1268 	ret
                           0003F9  1269 	Sstm8s_uart1$UART1_ITConfig$245 ==.
                           0003F9  1270 	Sstm8s_uart1$UART1_HalfDuplexCmd$246 ==.
                                   1271 ;	../SPL/src/stm8s_uart1.c: 265: void UART1_HalfDuplexCmd(FunctionalState NewState)
                                   1272 ; genLabel
                                   1273 ;	-----------------------------------------
                                   1274 ;	 function UART1_HalfDuplexCmd
                                   1275 ;	-----------------------------------------
                                   1276 ;	Register assignment is optimal.
                                   1277 ;	Stack space usage: 0 bytes.
      0003F9                       1278 _UART1_HalfDuplexCmd:
                           0003F9  1279 	Sstm8s_uart1$UART1_HalfDuplexCmd$247 ==.
                           0003F9  1280 	Sstm8s_uart1$UART1_HalfDuplexCmd$248 ==.
                                   1281 ;	../SPL/src/stm8s_uart1.c: 267: assert_param(IS_FUNCTIONALSTATE_OK(NewState));
                                   1282 ; genIfx
      0003F9 0D 03            [ 1] 1283 	tnz	(0x03, sp)
      0003FB 26 03            [ 1] 1284 	jrne	00126$
      0003FD CCr04r17         [ 2] 1285 	jp	00107$
      000400                       1286 00126$:
                                   1287 ; genCmpEQorNE
      000400 7B 03            [ 1] 1288 	ld	a, (0x03, sp)
      000402 4A               [ 1] 1289 	dec	a
      000403 26 03            [ 1] 1290 	jrne	00128$
      000405 CCr04r17         [ 2] 1291 	jp	00107$
      000408                       1292 00128$:
                           000408  1293 	Sstm8s_uart1$UART1_HalfDuplexCmd$249 ==.
                                   1294 ; skipping generated iCode
                                   1295 ; skipping iCode since result will be rematerialized
                                   1296 ; skipping iCode since result will be rematerialized
                                   1297 ; genIPush
      000408 4B 0B            [ 1] 1298 	push	#0x0b
                           00040A  1299 	Sstm8s_uart1$UART1_HalfDuplexCmd$250 ==.
      00040A 4B 01            [ 1] 1300 	push	#0x01
                           00040C  1301 	Sstm8s_uart1$UART1_HalfDuplexCmd$251 ==.
      00040C 5F               [ 1] 1302 	clrw	x
      00040D 89               [ 2] 1303 	pushw	x
                           00040E  1304 	Sstm8s_uart1$UART1_HalfDuplexCmd$252 ==.
                                   1305 ; genIPush
      00040E 4Br00            [ 1] 1306 	push	#<(___str_0+0)
                           000410  1307 	Sstm8s_uart1$UART1_HalfDuplexCmd$253 ==.
      000410 4Bs00            [ 1] 1308 	push	#((___str_0+0) >> 8)
                           000412  1309 	Sstm8s_uart1$UART1_HalfDuplexCmd$254 ==.
                                   1310 ; genCall
      000412 CDr00r00         [ 4] 1311 	call	_assert_failed
      000415 5B 06            [ 2] 1312 	addw	sp, #6
                           000417  1313 	Sstm8s_uart1$UART1_HalfDuplexCmd$255 ==.
                                   1314 ; genLabel
      000417                       1315 00107$:
                           000417  1316 	Sstm8s_uart1$UART1_HalfDuplexCmd$256 ==.
                                   1317 ;	../SPL/src/stm8s_uart1.c: 271: UART1->CR5 |= UART1_CR5_HDSEL;  /**< UART1 Half Duplex Enable  */
                                   1318 ; genPointerGet
      000417 C6 52 38         [ 1] 1319 	ld	a, 0x5238
                           00041A  1320 	Sstm8s_uart1$UART1_HalfDuplexCmd$257 ==.
                                   1321 ;	../SPL/src/stm8s_uart1.c: 269: if (NewState != DISABLE)
                                   1322 ; genIfx
      00041A 0D 03            [ 1] 1323 	tnz	(0x03, sp)
      00041C 26 03            [ 1] 1324 	jrne	00130$
      00041E CCr04r29         [ 2] 1325 	jp	00102$
      000421                       1326 00130$:
                           000421  1327 	Sstm8s_uart1$UART1_HalfDuplexCmd$258 ==.
                           000421  1328 	Sstm8s_uart1$UART1_HalfDuplexCmd$259 ==.
                                   1329 ;	../SPL/src/stm8s_uart1.c: 271: UART1->CR5 |= UART1_CR5_HDSEL;  /**< UART1 Half Duplex Enable  */
                                   1330 ; genOr
      000421 AA 08            [ 1] 1331 	or	a, #0x08
                                   1332 ; genPointerSet
      000423 C7 52 38         [ 1] 1333 	ld	0x5238, a
                           000426  1334 	Sstm8s_uart1$UART1_HalfDuplexCmd$260 ==.
                                   1335 ; genGoto
      000426 CCr04r2E         [ 2] 1336 	jp	00104$
                                   1337 ; genLabel
      000429                       1338 00102$:
                           000429  1339 	Sstm8s_uart1$UART1_HalfDuplexCmd$261 ==.
                           000429  1340 	Sstm8s_uart1$UART1_HalfDuplexCmd$262 ==.
                                   1341 ;	../SPL/src/stm8s_uart1.c: 275: UART1->CR5 &= (uint8_t)~UART1_CR5_HDSEL; /**< UART1 Half Duplex Disable */
                                   1342 ; genAnd
      000429 A4 F7            [ 1] 1343 	and	a, #0xf7
                                   1344 ; genPointerSet
      00042B C7 52 38         [ 1] 1345 	ld	0x5238, a
                           00042E  1346 	Sstm8s_uart1$UART1_HalfDuplexCmd$263 ==.
                                   1347 ; genLabel
      00042E                       1348 00104$:
                           00042E  1349 	Sstm8s_uart1$UART1_HalfDuplexCmd$264 ==.
                                   1350 ;	../SPL/src/stm8s_uart1.c: 277: }
                                   1351 ; genEndFunction
                           00042E  1352 	Sstm8s_uart1$UART1_HalfDuplexCmd$265 ==.
                           00042E  1353 	XG$UART1_HalfDuplexCmd$0$0 ==.
      00042E 81               [ 4] 1354 	ret
                           00042F  1355 	Sstm8s_uart1$UART1_HalfDuplexCmd$266 ==.
                           00042F  1356 	Sstm8s_uart1$UART1_IrDAConfig$267 ==.
                                   1357 ;	../SPL/src/stm8s_uart1.c: 285: void UART1_IrDAConfig(UART1_IrDAMode_TypeDef UART1_IrDAMode)
                                   1358 ; genLabel
                                   1359 ;	-----------------------------------------
                                   1360 ;	 function UART1_IrDAConfig
                                   1361 ;	-----------------------------------------
                                   1362 ;	Register assignment is optimal.
                                   1363 ;	Stack space usage: 0 bytes.
      00042F                       1364 _UART1_IrDAConfig:
                           00042F  1365 	Sstm8s_uart1$UART1_IrDAConfig$268 ==.
                           00042F  1366 	Sstm8s_uart1$UART1_IrDAConfig$269 ==.
                                   1367 ;	../SPL/src/stm8s_uart1.c: 287: assert_param(IS_UART1_IRDAMODE_OK(UART1_IrDAMode));
                                   1368 ; genCmpEQorNE
      00042F 7B 03            [ 1] 1369 	ld	a, (0x03, sp)
      000431 4A               [ 1] 1370 	dec	a
      000432 26 03            [ 1] 1371 	jrne	00127$
      000434 CCr04r4D         [ 2] 1372 	jp	00107$
      000437                       1373 00127$:
                           000437  1374 	Sstm8s_uart1$UART1_IrDAConfig$270 ==.
                                   1375 ; skipping generated iCode
                                   1376 ; genIfx
      000437 0D 03            [ 1] 1377 	tnz	(0x03, sp)
      000439 26 03            [ 1] 1378 	jrne	00129$
      00043B CCr04r4D         [ 2] 1379 	jp	00107$
      00043E                       1380 00129$:
                                   1381 ; skipping iCode since result will be rematerialized
                                   1382 ; skipping iCode since result will be rematerialized
                                   1383 ; genIPush
      00043E 4B 1F            [ 1] 1384 	push	#0x1f
                           000440  1385 	Sstm8s_uart1$UART1_IrDAConfig$271 ==.
      000440 4B 01            [ 1] 1386 	push	#0x01
                           000442  1387 	Sstm8s_uart1$UART1_IrDAConfig$272 ==.
      000442 5F               [ 1] 1388 	clrw	x
      000443 89               [ 2] 1389 	pushw	x
                           000444  1390 	Sstm8s_uart1$UART1_IrDAConfig$273 ==.
                                   1391 ; genIPush
      000444 4Br00            [ 1] 1392 	push	#<(___str_0+0)
                           000446  1393 	Sstm8s_uart1$UART1_IrDAConfig$274 ==.
      000446 4Bs00            [ 1] 1394 	push	#((___str_0+0) >> 8)
                           000448  1395 	Sstm8s_uart1$UART1_IrDAConfig$275 ==.
                                   1396 ; genCall
      000448 CDr00r00         [ 4] 1397 	call	_assert_failed
      00044B 5B 06            [ 2] 1398 	addw	sp, #6
                           00044D  1399 	Sstm8s_uart1$UART1_IrDAConfig$276 ==.
                                   1400 ; genLabel
      00044D                       1401 00107$:
                           00044D  1402 	Sstm8s_uart1$UART1_IrDAConfig$277 ==.
                                   1403 ;	../SPL/src/stm8s_uart1.c: 291: UART1->CR5 |= UART1_CR5_IRLP;
                                   1404 ; genPointerGet
      00044D C6 52 38         [ 1] 1405 	ld	a, 0x5238
                           000450  1406 	Sstm8s_uart1$UART1_IrDAConfig$278 ==.
                                   1407 ;	../SPL/src/stm8s_uart1.c: 289: if (UART1_IrDAMode != UART1_IRDAMODE_NORMAL)
                                   1408 ; genIfx
      000450 0D 03            [ 1] 1409 	tnz	(0x03, sp)
      000452 26 03            [ 1] 1410 	jrne	00130$
      000454 CCr04r5F         [ 2] 1411 	jp	00102$
      000457                       1412 00130$:
                           000457  1413 	Sstm8s_uart1$UART1_IrDAConfig$279 ==.
                           000457  1414 	Sstm8s_uart1$UART1_IrDAConfig$280 ==.
                                   1415 ;	../SPL/src/stm8s_uart1.c: 291: UART1->CR5 |= UART1_CR5_IRLP;
                                   1416 ; genOr
      000457 AA 04            [ 1] 1417 	or	a, #0x04
                                   1418 ; genPointerSet
      000459 C7 52 38         [ 1] 1419 	ld	0x5238, a
                           00045C  1420 	Sstm8s_uart1$UART1_IrDAConfig$281 ==.
                                   1421 ; genGoto
      00045C CCr04r64         [ 2] 1422 	jp	00104$
                                   1423 ; genLabel
      00045F                       1424 00102$:
                           00045F  1425 	Sstm8s_uart1$UART1_IrDAConfig$282 ==.
                           00045F  1426 	Sstm8s_uart1$UART1_IrDAConfig$283 ==.
                                   1427 ;	../SPL/src/stm8s_uart1.c: 295: UART1->CR5 &= ((uint8_t)~UART1_CR5_IRLP);
                                   1428 ; genAnd
      00045F A4 FB            [ 1] 1429 	and	a, #0xfb
                                   1430 ; genPointerSet
      000461 C7 52 38         [ 1] 1431 	ld	0x5238, a
                           000464  1432 	Sstm8s_uart1$UART1_IrDAConfig$284 ==.
                                   1433 ; genLabel
      000464                       1434 00104$:
                           000464  1435 	Sstm8s_uart1$UART1_IrDAConfig$285 ==.
                                   1436 ;	../SPL/src/stm8s_uart1.c: 297: }
                                   1437 ; genEndFunction
                           000464  1438 	Sstm8s_uart1$UART1_IrDAConfig$286 ==.
                           000464  1439 	XG$UART1_IrDAConfig$0$0 ==.
      000464 81               [ 4] 1440 	ret
                           000465  1441 	Sstm8s_uart1$UART1_IrDAConfig$287 ==.
                           000465  1442 	Sstm8s_uart1$UART1_IrDACmd$288 ==.
                                   1443 ;	../SPL/src/stm8s_uart1.c: 305: void UART1_IrDACmd(FunctionalState NewState)
                                   1444 ; genLabel
                                   1445 ;	-----------------------------------------
                                   1446 ;	 function UART1_IrDACmd
                                   1447 ;	-----------------------------------------
                                   1448 ;	Register assignment is optimal.
                                   1449 ;	Stack space usage: 0 bytes.
      000465                       1450 _UART1_IrDACmd:
                           000465  1451 	Sstm8s_uart1$UART1_IrDACmd$289 ==.
                           000465  1452 	Sstm8s_uart1$UART1_IrDACmd$290 ==.
                                   1453 ;	../SPL/src/stm8s_uart1.c: 308: assert_param(IS_FUNCTIONALSTATE_OK(NewState));
                                   1454 ; genIfx
      000465 0D 03            [ 1] 1455 	tnz	(0x03, sp)
      000467 26 03            [ 1] 1456 	jrne	00126$
      000469 CCr04r83         [ 2] 1457 	jp	00107$
      00046C                       1458 00126$:
                                   1459 ; genCmpEQorNE
      00046C 7B 03            [ 1] 1460 	ld	a, (0x03, sp)
      00046E 4A               [ 1] 1461 	dec	a
      00046F 26 03            [ 1] 1462 	jrne	00128$
      000471 CCr04r83         [ 2] 1463 	jp	00107$
      000474                       1464 00128$:
                           000474  1465 	Sstm8s_uart1$UART1_IrDACmd$291 ==.
                                   1466 ; skipping generated iCode
                                   1467 ; skipping iCode since result will be rematerialized
                                   1468 ; skipping iCode since result will be rematerialized
                                   1469 ; genIPush
      000474 4B 34            [ 1] 1470 	push	#0x34
                           000476  1471 	Sstm8s_uart1$UART1_IrDACmd$292 ==.
      000476 4B 01            [ 1] 1472 	push	#0x01
                           000478  1473 	Sstm8s_uart1$UART1_IrDACmd$293 ==.
      000478 5F               [ 1] 1474 	clrw	x
      000479 89               [ 2] 1475 	pushw	x
                           00047A  1476 	Sstm8s_uart1$UART1_IrDACmd$294 ==.
                                   1477 ; genIPush
      00047A 4Br00            [ 1] 1478 	push	#<(___str_0+0)
                           00047C  1479 	Sstm8s_uart1$UART1_IrDACmd$295 ==.
      00047C 4Bs00            [ 1] 1480 	push	#((___str_0+0) >> 8)
                           00047E  1481 	Sstm8s_uart1$UART1_IrDACmd$296 ==.
                                   1482 ; genCall
      00047E CDr00r00         [ 4] 1483 	call	_assert_failed
      000481 5B 06            [ 2] 1484 	addw	sp, #6
                           000483  1485 	Sstm8s_uart1$UART1_IrDACmd$297 ==.
                                   1486 ; genLabel
      000483                       1487 00107$:
                           000483  1488 	Sstm8s_uart1$UART1_IrDACmd$298 ==.
                                   1489 ;	../SPL/src/stm8s_uart1.c: 313: UART1->CR5 |= UART1_CR5_IREN;
                                   1490 ; genPointerGet
      000483 C6 52 38         [ 1] 1491 	ld	a, 0x5238
                           000486  1492 	Sstm8s_uart1$UART1_IrDACmd$299 ==.
                                   1493 ;	../SPL/src/stm8s_uart1.c: 310: if (NewState != DISABLE)
                                   1494 ; genIfx
      000486 0D 03            [ 1] 1495 	tnz	(0x03, sp)
      000488 26 03            [ 1] 1496 	jrne	00130$
      00048A CCr04r95         [ 2] 1497 	jp	00102$
      00048D                       1498 00130$:
                           00048D  1499 	Sstm8s_uart1$UART1_IrDACmd$300 ==.
                           00048D  1500 	Sstm8s_uart1$UART1_IrDACmd$301 ==.
                                   1501 ;	../SPL/src/stm8s_uart1.c: 313: UART1->CR5 |= UART1_CR5_IREN;
                                   1502 ; genOr
      00048D AA 02            [ 1] 1503 	or	a, #0x02
                                   1504 ; genPointerSet
      00048F C7 52 38         [ 1] 1505 	ld	0x5238, a
                           000492  1506 	Sstm8s_uart1$UART1_IrDACmd$302 ==.
                                   1507 ; genGoto
      000492 CCr04r9A         [ 2] 1508 	jp	00104$
                                   1509 ; genLabel
      000495                       1510 00102$:
                           000495  1511 	Sstm8s_uart1$UART1_IrDACmd$303 ==.
                           000495  1512 	Sstm8s_uart1$UART1_IrDACmd$304 ==.
                                   1513 ;	../SPL/src/stm8s_uart1.c: 318: UART1->CR5 &= ((uint8_t)~UART1_CR5_IREN);
                                   1514 ; genAnd
      000495 A4 FD            [ 1] 1515 	and	a, #0xfd
                                   1516 ; genPointerSet
      000497 C7 52 38         [ 1] 1517 	ld	0x5238, a
                           00049A  1518 	Sstm8s_uart1$UART1_IrDACmd$305 ==.
                                   1519 ; genLabel
      00049A                       1520 00104$:
                           00049A  1521 	Sstm8s_uart1$UART1_IrDACmd$306 ==.
                                   1522 ;	../SPL/src/stm8s_uart1.c: 320: }
                                   1523 ; genEndFunction
                           00049A  1524 	Sstm8s_uart1$UART1_IrDACmd$307 ==.
                           00049A  1525 	XG$UART1_IrDACmd$0$0 ==.
      00049A 81               [ 4] 1526 	ret
                           00049B  1527 	Sstm8s_uart1$UART1_IrDACmd$308 ==.
                           00049B  1528 	Sstm8s_uart1$UART1_LINBreakDetectionConfig$309 ==.
                                   1529 ;	../SPL/src/stm8s_uart1.c: 329: void UART1_LINBreakDetectionConfig(UART1_LINBreakDetectionLength_TypeDef UART1_LINBreakDetectionLength)
                                   1530 ; genLabel
                                   1531 ;	-----------------------------------------
                                   1532 ;	 function UART1_LINBreakDetectionConfig
                                   1533 ;	-----------------------------------------
                                   1534 ;	Register assignment is optimal.
                                   1535 ;	Stack space usage: 0 bytes.
      00049B                       1536 _UART1_LINBreakDetectionConfig:
                           00049B  1537 	Sstm8s_uart1$UART1_LINBreakDetectionConfig$310 ==.
                           00049B  1538 	Sstm8s_uart1$UART1_LINBreakDetectionConfig$311 ==.
                                   1539 ;	../SPL/src/stm8s_uart1.c: 331: assert_param(IS_UART1_LINBREAKDETECTIONLENGTH_OK(UART1_LINBreakDetectionLength));
                                   1540 ; genIfx
      00049B 0D 03            [ 1] 1541 	tnz	(0x03, sp)
      00049D 26 03            [ 1] 1542 	jrne	00126$
      00049F CCr04rB9         [ 2] 1543 	jp	00107$
      0004A2                       1544 00126$:
                                   1545 ; genCmpEQorNE
      0004A2 7B 03            [ 1] 1546 	ld	a, (0x03, sp)
      0004A4 4A               [ 1] 1547 	dec	a
      0004A5 26 03            [ 1] 1548 	jrne	00128$
      0004A7 CCr04rB9         [ 2] 1549 	jp	00107$
      0004AA                       1550 00128$:
                           0004AA  1551 	Sstm8s_uart1$UART1_LINBreakDetectionConfig$312 ==.
                                   1552 ; skipping generated iCode
                                   1553 ; skipping iCode since result will be rematerialized
                                   1554 ; skipping iCode since result will be rematerialized
                                   1555 ; genIPush
      0004AA 4B 4B            [ 1] 1556 	push	#0x4b
                           0004AC  1557 	Sstm8s_uart1$UART1_LINBreakDetectionConfig$313 ==.
      0004AC 4B 01            [ 1] 1558 	push	#0x01
                           0004AE  1559 	Sstm8s_uart1$UART1_LINBreakDetectionConfig$314 ==.
      0004AE 5F               [ 1] 1560 	clrw	x
      0004AF 89               [ 2] 1561 	pushw	x
                           0004B0  1562 	Sstm8s_uart1$UART1_LINBreakDetectionConfig$315 ==.
                                   1563 ; genIPush
      0004B0 4Br00            [ 1] 1564 	push	#<(___str_0+0)
                           0004B2  1565 	Sstm8s_uart1$UART1_LINBreakDetectionConfig$316 ==.
      0004B2 4Bs00            [ 1] 1566 	push	#((___str_0+0) >> 8)
                           0004B4  1567 	Sstm8s_uart1$UART1_LINBreakDetectionConfig$317 ==.
                                   1568 ; genCall
      0004B4 CDr00r00         [ 4] 1569 	call	_assert_failed
      0004B7 5B 06            [ 2] 1570 	addw	sp, #6
                           0004B9  1571 	Sstm8s_uart1$UART1_LINBreakDetectionConfig$318 ==.
                                   1572 ; genLabel
      0004B9                       1573 00107$:
                           0004B9  1574 	Sstm8s_uart1$UART1_LINBreakDetectionConfig$319 ==.
                                   1575 ;	../SPL/src/stm8s_uart1.c: 335: UART1->CR4 |= UART1_CR4_LBDL;
                                   1576 ; genPointerGet
      0004B9 C6 52 37         [ 1] 1577 	ld	a, 0x5237
                           0004BC  1578 	Sstm8s_uart1$UART1_LINBreakDetectionConfig$320 ==.
                                   1579 ;	../SPL/src/stm8s_uart1.c: 333: if (UART1_LINBreakDetectionLength != UART1_LINBREAKDETECTIONLENGTH_10BITS)
                                   1580 ; genIfx
      0004BC 0D 03            [ 1] 1581 	tnz	(0x03, sp)
      0004BE 26 03            [ 1] 1582 	jrne	00130$
      0004C0 CCr04rCB         [ 2] 1583 	jp	00102$
      0004C3                       1584 00130$:
                           0004C3  1585 	Sstm8s_uart1$UART1_LINBreakDetectionConfig$321 ==.
                           0004C3  1586 	Sstm8s_uart1$UART1_LINBreakDetectionConfig$322 ==.
                                   1587 ;	../SPL/src/stm8s_uart1.c: 335: UART1->CR4 |= UART1_CR4_LBDL;
                                   1588 ; genOr
      0004C3 AA 20            [ 1] 1589 	or	a, #0x20
                                   1590 ; genPointerSet
      0004C5 C7 52 37         [ 1] 1591 	ld	0x5237, a
                           0004C8  1592 	Sstm8s_uart1$UART1_LINBreakDetectionConfig$323 ==.
                                   1593 ; genGoto
      0004C8 CCr04rD0         [ 2] 1594 	jp	00104$
                                   1595 ; genLabel
      0004CB                       1596 00102$:
                           0004CB  1597 	Sstm8s_uart1$UART1_LINBreakDetectionConfig$324 ==.
                           0004CB  1598 	Sstm8s_uart1$UART1_LINBreakDetectionConfig$325 ==.
                                   1599 ;	../SPL/src/stm8s_uart1.c: 339: UART1->CR4 &= ((uint8_t)~UART1_CR4_LBDL);
                                   1600 ; genAnd
      0004CB A4 DF            [ 1] 1601 	and	a, #0xdf
                                   1602 ; genPointerSet
      0004CD C7 52 37         [ 1] 1603 	ld	0x5237, a
                           0004D0  1604 	Sstm8s_uart1$UART1_LINBreakDetectionConfig$326 ==.
                                   1605 ; genLabel
      0004D0                       1606 00104$:
                           0004D0  1607 	Sstm8s_uart1$UART1_LINBreakDetectionConfig$327 ==.
                                   1608 ;	../SPL/src/stm8s_uart1.c: 341: }
                                   1609 ; genEndFunction
                           0004D0  1610 	Sstm8s_uart1$UART1_LINBreakDetectionConfig$328 ==.
                           0004D0  1611 	XG$UART1_LINBreakDetectionConfig$0$0 ==.
      0004D0 81               [ 4] 1612 	ret
                           0004D1  1613 	Sstm8s_uart1$UART1_LINBreakDetectionConfig$329 ==.
                           0004D1  1614 	Sstm8s_uart1$UART1_LINCmd$330 ==.
                                   1615 ;	../SPL/src/stm8s_uart1.c: 349: void UART1_LINCmd(FunctionalState NewState)
                                   1616 ; genLabel
                                   1617 ;	-----------------------------------------
                                   1618 ;	 function UART1_LINCmd
                                   1619 ;	-----------------------------------------
                                   1620 ;	Register assignment is optimal.
                                   1621 ;	Stack space usage: 0 bytes.
      0004D1                       1622 _UART1_LINCmd:
                           0004D1  1623 	Sstm8s_uart1$UART1_LINCmd$331 ==.
                           0004D1  1624 	Sstm8s_uart1$UART1_LINCmd$332 ==.
                                   1625 ;	../SPL/src/stm8s_uart1.c: 351: assert_param(IS_FUNCTIONALSTATE_OK(NewState));
                                   1626 ; genIfx
      0004D1 0D 03            [ 1] 1627 	tnz	(0x03, sp)
      0004D3 26 03            [ 1] 1628 	jrne	00126$
      0004D5 CCr04rEF         [ 2] 1629 	jp	00107$
      0004D8                       1630 00126$:
                                   1631 ; genCmpEQorNE
      0004D8 7B 03            [ 1] 1632 	ld	a, (0x03, sp)
      0004DA 4A               [ 1] 1633 	dec	a
      0004DB 26 03            [ 1] 1634 	jrne	00128$
      0004DD CCr04rEF         [ 2] 1635 	jp	00107$
      0004E0                       1636 00128$:
                           0004E0  1637 	Sstm8s_uart1$UART1_LINCmd$333 ==.
                                   1638 ; skipping generated iCode
                                   1639 ; skipping iCode since result will be rematerialized
                                   1640 ; skipping iCode since result will be rematerialized
                                   1641 ; genIPush
      0004E0 4B 5F            [ 1] 1642 	push	#0x5f
                           0004E2  1643 	Sstm8s_uart1$UART1_LINCmd$334 ==.
      0004E2 4B 01            [ 1] 1644 	push	#0x01
                           0004E4  1645 	Sstm8s_uart1$UART1_LINCmd$335 ==.
      0004E4 5F               [ 1] 1646 	clrw	x
      0004E5 89               [ 2] 1647 	pushw	x
                           0004E6  1648 	Sstm8s_uart1$UART1_LINCmd$336 ==.
                                   1649 ; genIPush
      0004E6 4Br00            [ 1] 1650 	push	#<(___str_0+0)
                           0004E8  1651 	Sstm8s_uart1$UART1_LINCmd$337 ==.
      0004E8 4Bs00            [ 1] 1652 	push	#((___str_0+0) >> 8)
                           0004EA  1653 	Sstm8s_uart1$UART1_LINCmd$338 ==.
                                   1654 ; genCall
      0004EA CDr00r00         [ 4] 1655 	call	_assert_failed
      0004ED 5B 06            [ 2] 1656 	addw	sp, #6
                           0004EF  1657 	Sstm8s_uart1$UART1_LINCmd$339 ==.
                                   1658 ; genLabel
      0004EF                       1659 00107$:
                           0004EF  1660 	Sstm8s_uart1$UART1_LINCmd$340 ==.
                                   1661 ;	../SPL/src/stm8s_uart1.c: 356: UART1->CR3 |= UART1_CR3_LINEN;
                                   1662 ; genPointerGet
      0004EF C6 52 36         [ 1] 1663 	ld	a, 0x5236
                           0004F2  1664 	Sstm8s_uart1$UART1_LINCmd$341 ==.
                                   1665 ;	../SPL/src/stm8s_uart1.c: 353: if (NewState != DISABLE)
                                   1666 ; genIfx
      0004F2 0D 03            [ 1] 1667 	tnz	(0x03, sp)
      0004F4 26 03            [ 1] 1668 	jrne	00130$
      0004F6 CCr05r01         [ 2] 1669 	jp	00102$
      0004F9                       1670 00130$:
                           0004F9  1671 	Sstm8s_uart1$UART1_LINCmd$342 ==.
                           0004F9  1672 	Sstm8s_uart1$UART1_LINCmd$343 ==.
                                   1673 ;	../SPL/src/stm8s_uart1.c: 356: UART1->CR3 |= UART1_CR3_LINEN;
                                   1674 ; genOr
      0004F9 AA 40            [ 1] 1675 	or	a, #0x40
                                   1676 ; genPointerSet
      0004FB C7 52 36         [ 1] 1677 	ld	0x5236, a
                           0004FE  1678 	Sstm8s_uart1$UART1_LINCmd$344 ==.
                                   1679 ; genGoto
      0004FE CCr05r06         [ 2] 1680 	jp	00104$
                                   1681 ; genLabel
      000501                       1682 00102$:
                           000501  1683 	Sstm8s_uart1$UART1_LINCmd$345 ==.
                           000501  1684 	Sstm8s_uart1$UART1_LINCmd$346 ==.
                                   1685 ;	../SPL/src/stm8s_uart1.c: 361: UART1->CR3 &= ((uint8_t)~UART1_CR3_LINEN);
                                   1686 ; genAnd
      000501 A4 BF            [ 1] 1687 	and	a, #0xbf
                                   1688 ; genPointerSet
      000503 C7 52 36         [ 1] 1689 	ld	0x5236, a
                           000506  1690 	Sstm8s_uart1$UART1_LINCmd$347 ==.
                                   1691 ; genLabel
      000506                       1692 00104$:
                           000506  1693 	Sstm8s_uart1$UART1_LINCmd$348 ==.
                                   1694 ;	../SPL/src/stm8s_uart1.c: 363: }
                                   1695 ; genEndFunction
                           000506  1696 	Sstm8s_uart1$UART1_LINCmd$349 ==.
                           000506  1697 	XG$UART1_LINCmd$0$0 ==.
      000506 81               [ 4] 1698 	ret
                           000507  1699 	Sstm8s_uart1$UART1_LINCmd$350 ==.
                           000507  1700 	Sstm8s_uart1$UART1_SmartCardCmd$351 ==.
                                   1701 ;	../SPL/src/stm8s_uart1.c: 371: void UART1_SmartCardCmd(FunctionalState NewState)
                                   1702 ; genLabel
                                   1703 ;	-----------------------------------------
                                   1704 ;	 function UART1_SmartCardCmd
                                   1705 ;	-----------------------------------------
                                   1706 ;	Register assignment is optimal.
                                   1707 ;	Stack space usage: 0 bytes.
      000507                       1708 _UART1_SmartCardCmd:
                           000507  1709 	Sstm8s_uart1$UART1_SmartCardCmd$352 ==.
                           000507  1710 	Sstm8s_uart1$UART1_SmartCardCmd$353 ==.
                                   1711 ;	../SPL/src/stm8s_uart1.c: 373: assert_param(IS_FUNCTIONALSTATE_OK(NewState));
                                   1712 ; genIfx
      000507 0D 03            [ 1] 1713 	tnz	(0x03, sp)
      000509 26 03            [ 1] 1714 	jrne	00126$
      00050B CCr05r25         [ 2] 1715 	jp	00107$
      00050E                       1716 00126$:
                                   1717 ; genCmpEQorNE
      00050E 7B 03            [ 1] 1718 	ld	a, (0x03, sp)
      000510 4A               [ 1] 1719 	dec	a
      000511 26 03            [ 1] 1720 	jrne	00128$
      000513 CCr05r25         [ 2] 1721 	jp	00107$
      000516                       1722 00128$:
                           000516  1723 	Sstm8s_uart1$UART1_SmartCardCmd$354 ==.
                                   1724 ; skipping generated iCode
                                   1725 ; skipping iCode since result will be rematerialized
                                   1726 ; skipping iCode since result will be rematerialized
                                   1727 ; genIPush
      000516 4B 75            [ 1] 1728 	push	#0x75
                           000518  1729 	Sstm8s_uart1$UART1_SmartCardCmd$355 ==.
      000518 4B 01            [ 1] 1730 	push	#0x01
                           00051A  1731 	Sstm8s_uart1$UART1_SmartCardCmd$356 ==.
      00051A 5F               [ 1] 1732 	clrw	x
      00051B 89               [ 2] 1733 	pushw	x
                           00051C  1734 	Sstm8s_uart1$UART1_SmartCardCmd$357 ==.
                                   1735 ; genIPush
      00051C 4Br00            [ 1] 1736 	push	#<(___str_0+0)
                           00051E  1737 	Sstm8s_uart1$UART1_SmartCardCmd$358 ==.
      00051E 4Bs00            [ 1] 1738 	push	#((___str_0+0) >> 8)
                           000520  1739 	Sstm8s_uart1$UART1_SmartCardCmd$359 ==.
                                   1740 ; genCall
      000520 CDr00r00         [ 4] 1741 	call	_assert_failed
      000523 5B 06            [ 2] 1742 	addw	sp, #6
                           000525  1743 	Sstm8s_uart1$UART1_SmartCardCmd$360 ==.
                                   1744 ; genLabel
      000525                       1745 00107$:
                           000525  1746 	Sstm8s_uart1$UART1_SmartCardCmd$361 ==.
                                   1747 ;	../SPL/src/stm8s_uart1.c: 378: UART1->CR5 |= UART1_CR5_SCEN;
                                   1748 ; genPointerGet
      000525 C6 52 38         [ 1] 1749 	ld	a, 0x5238
                           000528  1750 	Sstm8s_uart1$UART1_SmartCardCmd$362 ==.
                                   1751 ;	../SPL/src/stm8s_uart1.c: 375: if (NewState != DISABLE)
                                   1752 ; genIfx
      000528 0D 03            [ 1] 1753 	tnz	(0x03, sp)
      00052A 26 03            [ 1] 1754 	jrne	00130$
      00052C CCr05r37         [ 2] 1755 	jp	00102$
      00052F                       1756 00130$:
                           00052F  1757 	Sstm8s_uart1$UART1_SmartCardCmd$363 ==.
                           00052F  1758 	Sstm8s_uart1$UART1_SmartCardCmd$364 ==.
                                   1759 ;	../SPL/src/stm8s_uart1.c: 378: UART1->CR5 |= UART1_CR5_SCEN;
                                   1760 ; genOr
      00052F AA 20            [ 1] 1761 	or	a, #0x20
                                   1762 ; genPointerSet
      000531 C7 52 38         [ 1] 1763 	ld	0x5238, a
                           000534  1764 	Sstm8s_uart1$UART1_SmartCardCmd$365 ==.
                                   1765 ; genGoto
      000534 CCr05r3C         [ 2] 1766 	jp	00104$
                                   1767 ; genLabel
      000537                       1768 00102$:
                           000537  1769 	Sstm8s_uart1$UART1_SmartCardCmd$366 ==.
                           000537  1770 	Sstm8s_uart1$UART1_SmartCardCmd$367 ==.
                                   1771 ;	../SPL/src/stm8s_uart1.c: 383: UART1->CR5 &= ((uint8_t)(~UART1_CR5_SCEN));
                                   1772 ; genAnd
      000537 A4 DF            [ 1] 1773 	and	a, #0xdf
                                   1774 ; genPointerSet
      000539 C7 52 38         [ 1] 1775 	ld	0x5238, a
                           00053C  1776 	Sstm8s_uart1$UART1_SmartCardCmd$368 ==.
                                   1777 ; genLabel
      00053C                       1778 00104$:
                           00053C  1779 	Sstm8s_uart1$UART1_SmartCardCmd$369 ==.
                                   1780 ;	../SPL/src/stm8s_uart1.c: 385: }
                                   1781 ; genEndFunction
                           00053C  1782 	Sstm8s_uart1$UART1_SmartCardCmd$370 ==.
                           00053C  1783 	XG$UART1_SmartCardCmd$0$0 ==.
      00053C 81               [ 4] 1784 	ret
                           00053D  1785 	Sstm8s_uart1$UART1_SmartCardCmd$371 ==.
                           00053D  1786 	Sstm8s_uart1$UART1_SmartCardNACKCmd$372 ==.
                                   1787 ;	../SPL/src/stm8s_uart1.c: 394: void UART1_SmartCardNACKCmd(FunctionalState NewState)
                                   1788 ; genLabel
                                   1789 ;	-----------------------------------------
                                   1790 ;	 function UART1_SmartCardNACKCmd
                                   1791 ;	-----------------------------------------
                                   1792 ;	Register assignment is optimal.
                                   1793 ;	Stack space usage: 0 bytes.
      00053D                       1794 _UART1_SmartCardNACKCmd:
                           00053D  1795 	Sstm8s_uart1$UART1_SmartCardNACKCmd$373 ==.
                           00053D  1796 	Sstm8s_uart1$UART1_SmartCardNACKCmd$374 ==.
                                   1797 ;	../SPL/src/stm8s_uart1.c: 396: assert_param(IS_FUNCTIONALSTATE_OK(NewState));
                                   1798 ; genIfx
      00053D 0D 03            [ 1] 1799 	tnz	(0x03, sp)
      00053F 26 03            [ 1] 1800 	jrne	00126$
      000541 CCr05r5B         [ 2] 1801 	jp	00107$
      000544                       1802 00126$:
                                   1803 ; genCmpEQorNE
      000544 7B 03            [ 1] 1804 	ld	a, (0x03, sp)
      000546 4A               [ 1] 1805 	dec	a
      000547 26 03            [ 1] 1806 	jrne	00128$
      000549 CCr05r5B         [ 2] 1807 	jp	00107$
      00054C                       1808 00128$:
                           00054C  1809 	Sstm8s_uart1$UART1_SmartCardNACKCmd$375 ==.
                                   1810 ; skipping generated iCode
                                   1811 ; skipping iCode since result will be rematerialized
                                   1812 ; skipping iCode since result will be rematerialized
                                   1813 ; genIPush
      00054C 4B 8C            [ 1] 1814 	push	#0x8c
                           00054E  1815 	Sstm8s_uart1$UART1_SmartCardNACKCmd$376 ==.
      00054E 4B 01            [ 1] 1816 	push	#0x01
                           000550  1817 	Sstm8s_uart1$UART1_SmartCardNACKCmd$377 ==.
      000550 5F               [ 1] 1818 	clrw	x
      000551 89               [ 2] 1819 	pushw	x
                           000552  1820 	Sstm8s_uart1$UART1_SmartCardNACKCmd$378 ==.
                                   1821 ; genIPush
      000552 4Br00            [ 1] 1822 	push	#<(___str_0+0)
                           000554  1823 	Sstm8s_uart1$UART1_SmartCardNACKCmd$379 ==.
      000554 4Bs00            [ 1] 1824 	push	#((___str_0+0) >> 8)
                           000556  1825 	Sstm8s_uart1$UART1_SmartCardNACKCmd$380 ==.
                                   1826 ; genCall
      000556 CDr00r00         [ 4] 1827 	call	_assert_failed
      000559 5B 06            [ 2] 1828 	addw	sp, #6
                           00055B  1829 	Sstm8s_uart1$UART1_SmartCardNACKCmd$381 ==.
                                   1830 ; genLabel
      00055B                       1831 00107$:
                           00055B  1832 	Sstm8s_uart1$UART1_SmartCardNACKCmd$382 ==.
                                   1833 ;	../SPL/src/stm8s_uart1.c: 401: UART1->CR5 |= UART1_CR5_NACK;
                                   1834 ; genPointerGet
      00055B C6 52 38         [ 1] 1835 	ld	a, 0x5238
                           00055E  1836 	Sstm8s_uart1$UART1_SmartCardNACKCmd$383 ==.
                                   1837 ;	../SPL/src/stm8s_uart1.c: 398: if (NewState != DISABLE)
                                   1838 ; genIfx
      00055E 0D 03            [ 1] 1839 	tnz	(0x03, sp)
      000560 26 03            [ 1] 1840 	jrne	00130$
      000562 CCr05r6D         [ 2] 1841 	jp	00102$
      000565                       1842 00130$:
                           000565  1843 	Sstm8s_uart1$UART1_SmartCardNACKCmd$384 ==.
                           000565  1844 	Sstm8s_uart1$UART1_SmartCardNACKCmd$385 ==.
                                   1845 ;	../SPL/src/stm8s_uart1.c: 401: UART1->CR5 |= UART1_CR5_NACK;
                                   1846 ; genOr
      000565 AA 10            [ 1] 1847 	or	a, #0x10
                                   1848 ; genPointerSet
      000567 C7 52 38         [ 1] 1849 	ld	0x5238, a
                           00056A  1850 	Sstm8s_uart1$UART1_SmartCardNACKCmd$386 ==.
                                   1851 ; genGoto
      00056A CCr05r72         [ 2] 1852 	jp	00104$
                                   1853 ; genLabel
      00056D                       1854 00102$:
                           00056D  1855 	Sstm8s_uart1$UART1_SmartCardNACKCmd$387 ==.
                           00056D  1856 	Sstm8s_uart1$UART1_SmartCardNACKCmd$388 ==.
                                   1857 ;	../SPL/src/stm8s_uart1.c: 406: UART1->CR5 &= ((uint8_t)~(UART1_CR5_NACK));
                                   1858 ; genAnd
      00056D A4 EF            [ 1] 1859 	and	a, #0xef
                                   1860 ; genPointerSet
      00056F C7 52 38         [ 1] 1861 	ld	0x5238, a
                           000572  1862 	Sstm8s_uart1$UART1_SmartCardNACKCmd$389 ==.
                                   1863 ; genLabel
      000572                       1864 00104$:
                           000572  1865 	Sstm8s_uart1$UART1_SmartCardNACKCmd$390 ==.
                                   1866 ;	../SPL/src/stm8s_uart1.c: 408: }
                                   1867 ; genEndFunction
                           000572  1868 	Sstm8s_uart1$UART1_SmartCardNACKCmd$391 ==.
                           000572  1869 	XG$UART1_SmartCardNACKCmd$0$0 ==.
      000572 81               [ 4] 1870 	ret
                           000573  1871 	Sstm8s_uart1$UART1_SmartCardNACKCmd$392 ==.
                           000573  1872 	Sstm8s_uart1$UART1_WakeUpConfig$393 ==.
                                   1873 ;	../SPL/src/stm8s_uart1.c: 416: void UART1_WakeUpConfig(UART1_WakeUp_TypeDef UART1_WakeUp)
                                   1874 ; genLabel
                                   1875 ;	-----------------------------------------
                                   1876 ;	 function UART1_WakeUpConfig
                                   1877 ;	-----------------------------------------
                                   1878 ;	Register assignment is optimal.
                                   1879 ;	Stack space usage: 0 bytes.
      000573                       1880 _UART1_WakeUpConfig:
                           000573  1881 	Sstm8s_uart1$UART1_WakeUpConfig$394 ==.
                           000573  1882 	Sstm8s_uart1$UART1_WakeUpConfig$395 ==.
                                   1883 ;	../SPL/src/stm8s_uart1.c: 418: assert_param(IS_UART1_WAKEUP_OK(UART1_WakeUp));
                                   1884 ; genIfx
      000573 0D 03            [ 1] 1885 	tnz	(0x03, sp)
      000575 26 03            [ 1] 1886 	jrne	00118$
      000577 CCr05r92         [ 2] 1887 	jp	00104$
      00057A                       1888 00118$:
                                   1889 ; genCmpEQorNE
      00057A 7B 03            [ 1] 1890 	ld	a, (0x03, sp)
      00057C A1 08            [ 1] 1891 	cp	a, #0x08
      00057E 26 03            [ 1] 1892 	jrne	00120$
      000580 CCr05r92         [ 2] 1893 	jp	00104$
      000583                       1894 00120$:
                           000583  1895 	Sstm8s_uart1$UART1_WakeUpConfig$396 ==.
                                   1896 ; skipping generated iCode
                                   1897 ; skipping iCode since result will be rematerialized
                                   1898 ; skipping iCode since result will be rematerialized
                                   1899 ; genIPush
      000583 4B A2            [ 1] 1900 	push	#0xa2
                           000585  1901 	Sstm8s_uart1$UART1_WakeUpConfig$397 ==.
      000585 4B 01            [ 1] 1902 	push	#0x01
                           000587  1903 	Sstm8s_uart1$UART1_WakeUpConfig$398 ==.
      000587 5F               [ 1] 1904 	clrw	x
      000588 89               [ 2] 1905 	pushw	x
                           000589  1906 	Sstm8s_uart1$UART1_WakeUpConfig$399 ==.
                                   1907 ; genIPush
      000589 4Br00            [ 1] 1908 	push	#<(___str_0+0)
                           00058B  1909 	Sstm8s_uart1$UART1_WakeUpConfig$400 ==.
      00058B 4Bs00            [ 1] 1910 	push	#((___str_0+0) >> 8)
                           00058D  1911 	Sstm8s_uart1$UART1_WakeUpConfig$401 ==.
                                   1912 ; genCall
      00058D CDr00r00         [ 4] 1913 	call	_assert_failed
      000590 5B 06            [ 2] 1914 	addw	sp, #6
                           000592  1915 	Sstm8s_uart1$UART1_WakeUpConfig$402 ==.
                                   1916 ; genLabel
      000592                       1917 00104$:
                           000592  1918 	Sstm8s_uart1$UART1_WakeUpConfig$403 ==.
                                   1919 ;	../SPL/src/stm8s_uart1.c: 420: UART1->CR1 &= ((uint8_t)~UART1_CR1_WAKE);
                                   1920 ; genPointerGet
      000592 C6 52 34         [ 1] 1921 	ld	a, 0x5234
                                   1922 ; genAnd
      000595 A4 F7            [ 1] 1923 	and	a, #0xf7
                                   1924 ; genPointerSet
      000597 C7 52 34         [ 1] 1925 	ld	0x5234, a
                           00059A  1926 	Sstm8s_uart1$UART1_WakeUpConfig$404 ==.
                                   1927 ;	../SPL/src/stm8s_uart1.c: 421: UART1->CR1 |= (uint8_t)UART1_WakeUp;
                                   1928 ; genPointerGet
      00059A C6 52 34         [ 1] 1929 	ld	a, 0x5234
                                   1930 ; genOr
      00059D 1A 03            [ 1] 1931 	or	a, (0x03, sp)
                                   1932 ; genPointerSet
      00059F C7 52 34         [ 1] 1933 	ld	0x5234, a
                                   1934 ; genLabel
      0005A2                       1935 00101$:
                           0005A2  1936 	Sstm8s_uart1$UART1_WakeUpConfig$405 ==.
                                   1937 ;	../SPL/src/stm8s_uart1.c: 422: }
                                   1938 ; genEndFunction
                           0005A2  1939 	Sstm8s_uart1$UART1_WakeUpConfig$406 ==.
                           0005A2  1940 	XG$UART1_WakeUpConfig$0$0 ==.
      0005A2 81               [ 4] 1941 	ret
                           0005A3  1942 	Sstm8s_uart1$UART1_WakeUpConfig$407 ==.
                           0005A3  1943 	Sstm8s_uart1$UART1_ReceiverWakeUpCmd$408 ==.
                                   1944 ;	../SPL/src/stm8s_uart1.c: 430: void UART1_ReceiverWakeUpCmd(FunctionalState NewState)
                                   1945 ; genLabel
                                   1946 ;	-----------------------------------------
                                   1947 ;	 function UART1_ReceiverWakeUpCmd
                                   1948 ;	-----------------------------------------
                                   1949 ;	Register assignment is optimal.
                                   1950 ;	Stack space usage: 0 bytes.
      0005A3                       1951 _UART1_ReceiverWakeUpCmd:
                           0005A3  1952 	Sstm8s_uart1$UART1_ReceiverWakeUpCmd$409 ==.
                           0005A3  1953 	Sstm8s_uart1$UART1_ReceiverWakeUpCmd$410 ==.
                                   1954 ;	../SPL/src/stm8s_uart1.c: 432: assert_param(IS_FUNCTIONALSTATE_OK(NewState));
                                   1955 ; genIfx
      0005A3 0D 03            [ 1] 1956 	tnz	(0x03, sp)
      0005A5 26 03            [ 1] 1957 	jrne	00126$
      0005A7 CCr05rC1         [ 2] 1958 	jp	00107$
      0005AA                       1959 00126$:
                                   1960 ; genCmpEQorNE
      0005AA 7B 03            [ 1] 1961 	ld	a, (0x03, sp)
      0005AC 4A               [ 1] 1962 	dec	a
      0005AD 26 03            [ 1] 1963 	jrne	00128$
      0005AF CCr05rC1         [ 2] 1964 	jp	00107$
      0005B2                       1965 00128$:
                           0005B2  1966 	Sstm8s_uart1$UART1_ReceiverWakeUpCmd$411 ==.
                                   1967 ; skipping generated iCode
                                   1968 ; skipping iCode since result will be rematerialized
                                   1969 ; skipping iCode since result will be rematerialized
                                   1970 ; genIPush
      0005B2 4B B0            [ 1] 1971 	push	#0xb0
                           0005B4  1972 	Sstm8s_uart1$UART1_ReceiverWakeUpCmd$412 ==.
      0005B4 4B 01            [ 1] 1973 	push	#0x01
                           0005B6  1974 	Sstm8s_uart1$UART1_ReceiverWakeUpCmd$413 ==.
      0005B6 5F               [ 1] 1975 	clrw	x
      0005B7 89               [ 2] 1976 	pushw	x
                           0005B8  1977 	Sstm8s_uart1$UART1_ReceiverWakeUpCmd$414 ==.
                                   1978 ; genIPush
      0005B8 4Br00            [ 1] 1979 	push	#<(___str_0+0)
                           0005BA  1980 	Sstm8s_uart1$UART1_ReceiverWakeUpCmd$415 ==.
      0005BA 4Bs00            [ 1] 1981 	push	#((___str_0+0) >> 8)
                           0005BC  1982 	Sstm8s_uart1$UART1_ReceiverWakeUpCmd$416 ==.
                                   1983 ; genCall
      0005BC CDr00r00         [ 4] 1984 	call	_assert_failed
      0005BF 5B 06            [ 2] 1985 	addw	sp, #6
                           0005C1  1986 	Sstm8s_uart1$UART1_ReceiverWakeUpCmd$417 ==.
                                   1987 ; genLabel
      0005C1                       1988 00107$:
                           0005C1  1989 	Sstm8s_uart1$UART1_ReceiverWakeUpCmd$418 ==.
                                   1990 ;	../SPL/src/stm8s_uart1.c: 437: UART1->CR2 |= UART1_CR2_RWU;
                                   1991 ; genPointerGet
      0005C1 C6 52 35         [ 1] 1992 	ld	a, 0x5235
                           0005C4  1993 	Sstm8s_uart1$UART1_ReceiverWakeUpCmd$419 ==.
                                   1994 ;	../SPL/src/stm8s_uart1.c: 434: if (NewState != DISABLE)
                                   1995 ; genIfx
      0005C4 0D 03            [ 1] 1996 	tnz	(0x03, sp)
      0005C6 26 03            [ 1] 1997 	jrne	00130$
      0005C8 CCr05rD3         [ 2] 1998 	jp	00102$
      0005CB                       1999 00130$:
                           0005CB  2000 	Sstm8s_uart1$UART1_ReceiverWakeUpCmd$420 ==.
                           0005CB  2001 	Sstm8s_uart1$UART1_ReceiverWakeUpCmd$421 ==.
                                   2002 ;	../SPL/src/stm8s_uart1.c: 437: UART1->CR2 |= UART1_CR2_RWU;
                                   2003 ; genOr
      0005CB AA 02            [ 1] 2004 	or	a, #0x02
                                   2005 ; genPointerSet
      0005CD C7 52 35         [ 1] 2006 	ld	0x5235, a
                           0005D0  2007 	Sstm8s_uart1$UART1_ReceiverWakeUpCmd$422 ==.
                                   2008 ; genGoto
      0005D0 CCr05rD8         [ 2] 2009 	jp	00104$
                                   2010 ; genLabel
      0005D3                       2011 00102$:
                           0005D3  2012 	Sstm8s_uart1$UART1_ReceiverWakeUpCmd$423 ==.
                           0005D3  2013 	Sstm8s_uart1$UART1_ReceiverWakeUpCmd$424 ==.
                                   2014 ;	../SPL/src/stm8s_uart1.c: 442: UART1->CR2 &= ((uint8_t)~UART1_CR2_RWU);
                                   2015 ; genAnd
      0005D3 A4 FD            [ 1] 2016 	and	a, #0xfd
                                   2017 ; genPointerSet
      0005D5 C7 52 35         [ 1] 2018 	ld	0x5235, a
                           0005D8  2019 	Sstm8s_uart1$UART1_ReceiverWakeUpCmd$425 ==.
                                   2020 ; genLabel
      0005D8                       2021 00104$:
                           0005D8  2022 	Sstm8s_uart1$UART1_ReceiverWakeUpCmd$426 ==.
                                   2023 ;	../SPL/src/stm8s_uart1.c: 444: }
                                   2024 ; genEndFunction
                           0005D8  2025 	Sstm8s_uart1$UART1_ReceiverWakeUpCmd$427 ==.
                           0005D8  2026 	XG$UART1_ReceiverWakeUpCmd$0$0 ==.
      0005D8 81               [ 4] 2027 	ret
                           0005D9  2028 	Sstm8s_uart1$UART1_ReceiverWakeUpCmd$428 ==.
                           0005D9  2029 	Sstm8s_uart1$UART1_ReceiveData8$429 ==.
                                   2030 ;	../SPL/src/stm8s_uart1.c: 451: uint8_t UART1_ReceiveData8(void)
                                   2031 ; genLabel
                                   2032 ;	-----------------------------------------
                                   2033 ;	 function UART1_ReceiveData8
                                   2034 ;	-----------------------------------------
                                   2035 ;	Register assignment is optimal.
                                   2036 ;	Stack space usage: 0 bytes.
      0005D9                       2037 _UART1_ReceiveData8:
                           0005D9  2038 	Sstm8s_uart1$UART1_ReceiveData8$430 ==.
                           0005D9  2039 	Sstm8s_uart1$UART1_ReceiveData8$431 ==.
                                   2040 ;	../SPL/src/stm8s_uart1.c: 453: return ((uint8_t)UART1->DR);
                                   2041 ; genPointerGet
      0005D9 C6 52 31         [ 1] 2042 	ld	a, 0x5231
                                   2043 ; genReturn
                                   2044 ; genLabel
      0005DC                       2045 00101$:
                           0005DC  2046 	Sstm8s_uart1$UART1_ReceiveData8$432 ==.
                                   2047 ;	../SPL/src/stm8s_uart1.c: 454: }
                                   2048 ; genEndFunction
                           0005DC  2049 	Sstm8s_uart1$UART1_ReceiveData8$433 ==.
                           0005DC  2050 	XG$UART1_ReceiveData8$0$0 ==.
      0005DC 81               [ 4] 2051 	ret
                           0005DD  2052 	Sstm8s_uart1$UART1_ReceiveData8$434 ==.
                           0005DD  2053 	Sstm8s_uart1$UART1_ReceiveData9$435 ==.
                                   2054 ;	../SPL/src/stm8s_uart1.c: 461: uint16_t UART1_ReceiveData9(void)
                                   2055 ; genLabel
                                   2056 ;	-----------------------------------------
                                   2057 ;	 function UART1_ReceiveData9
                                   2058 ;	-----------------------------------------
                                   2059 ;	Register assignment might be sub-optimal.
                                   2060 ;	Stack space usage: 2 bytes.
      0005DD                       2061 _UART1_ReceiveData9:
                           0005DD  2062 	Sstm8s_uart1$UART1_ReceiveData9$436 ==.
      0005DD 89               [ 2] 2063 	pushw	x
                           0005DE  2064 	Sstm8s_uart1$UART1_ReceiveData9$437 ==.
                           0005DE  2065 	Sstm8s_uart1$UART1_ReceiveData9$438 ==.
                                   2066 ;	../SPL/src/stm8s_uart1.c: 465: temp = (uint16_t)(((uint16_t)( (uint16_t)UART1->CR1 & (uint16_t)UART1_CR1_R8)) << 1);
                                   2067 ; genPointerGet
      0005DE C6 52 34         [ 1] 2068 	ld	a, 0x5234
                                   2069 ; genCast
                                   2070 ; genAssign
      0005E1 5F               [ 1] 2071 	clrw	x
                                   2072 ; genAnd
      0005E2 A4 80            [ 1] 2073 	and	a, #0x80
      0005E4 97               [ 1] 2074 	ld	xl, a
      0005E5 4F               [ 1] 2075 	clr	a
                                   2076 ; genLeftShiftLiteral
      0005E6 95               [ 1] 2077 	ld	xh, a
      0005E7 58               [ 2] 2078 	sllw	x
                                   2079 ; genAssign
      0005E8 1F 01            [ 2] 2080 	ldw	(0x01, sp), x
                           0005EA  2081 	Sstm8s_uart1$UART1_ReceiveData9$439 ==.
                                   2082 ;	../SPL/src/stm8s_uart1.c: 466: return (uint16_t)( (((uint16_t) UART1->DR) | temp ) & ((uint16_t)0x01FF));
                                   2083 ; genPointerGet
      0005EA C6 52 31         [ 1] 2084 	ld	a, 0x5231
                                   2085 ; genCast
                                   2086 ; genAssign
      0005ED 5F               [ 1] 2087 	clrw	x
                                   2088 ; genOr
      0005EE 1A 02            [ 1] 2089 	or	a, (0x02, sp)
      0005F0 97               [ 1] 2090 	ld	xl, a
      0005F1 9E               [ 1] 2091 	ld	a, xh
      0005F2 1A 01            [ 1] 2092 	or	a, (0x01, sp)
                                   2093 ; genAnd
      0005F4 A4 01            [ 1] 2094 	and	a, #0x01
      0005F6 95               [ 1] 2095 	ld	xh, a
                                   2096 ; genReturn
                                   2097 ; genLabel
      0005F7                       2098 00101$:
                           0005F7  2099 	Sstm8s_uart1$UART1_ReceiveData9$440 ==.
                                   2100 ;	../SPL/src/stm8s_uart1.c: 467: }
                                   2101 ; genEndFunction
      0005F7 5B 02            [ 2] 2102 	addw	sp, #2
                           0005F9  2103 	Sstm8s_uart1$UART1_ReceiveData9$441 ==.
                           0005F9  2104 	Sstm8s_uart1$UART1_ReceiveData9$442 ==.
                           0005F9  2105 	XG$UART1_ReceiveData9$0$0 ==.
      0005F9 81               [ 4] 2106 	ret
                           0005FA  2107 	Sstm8s_uart1$UART1_ReceiveData9$443 ==.
                           0005FA  2108 	Sstm8s_uart1$UART1_SendData8$444 ==.
                                   2109 ;	../SPL/src/stm8s_uart1.c: 474: void UART1_SendData8(uint8_t Data)
                                   2110 ; genLabel
                                   2111 ;	-----------------------------------------
                                   2112 ;	 function UART1_SendData8
                                   2113 ;	-----------------------------------------
                                   2114 ;	Register assignment is optimal.
                                   2115 ;	Stack space usage: 0 bytes.
      0005FA                       2116 _UART1_SendData8:
                           0005FA  2117 	Sstm8s_uart1$UART1_SendData8$445 ==.
                           0005FA  2118 	Sstm8s_uart1$UART1_SendData8$446 ==.
                                   2119 ;	../SPL/src/stm8s_uart1.c: 477: UART1->DR = Data;
                                   2120 ; genPointerSet
      0005FA AE 52 31         [ 2] 2121 	ldw	x, #0x5231
      0005FD 7B 03            [ 1] 2122 	ld	a, (0x03, sp)
      0005FF F7               [ 1] 2123 	ld	(x), a
                                   2124 ; genLabel
      000600                       2125 00101$:
                           000600  2126 	Sstm8s_uart1$UART1_SendData8$447 ==.
                                   2127 ;	../SPL/src/stm8s_uart1.c: 478: }
                                   2128 ; genEndFunction
                           000600  2129 	Sstm8s_uart1$UART1_SendData8$448 ==.
                           000600  2130 	XG$UART1_SendData8$0$0 ==.
      000600 81               [ 4] 2131 	ret
                           000601  2132 	Sstm8s_uart1$UART1_SendData8$449 ==.
                           000601  2133 	Sstm8s_uart1$UART1_SendData9$450 ==.
                                   2134 ;	../SPL/src/stm8s_uart1.c: 486: void UART1_SendData9(uint16_t Data)
                                   2135 ; genLabel
                                   2136 ;	-----------------------------------------
                                   2137 ;	 function UART1_SendData9
                                   2138 ;	-----------------------------------------
                                   2139 ;	Register assignment might be sub-optimal.
                                   2140 ;	Stack space usage: 1 bytes.
      000601                       2141 _UART1_SendData9:
                           000601  2142 	Sstm8s_uart1$UART1_SendData9$451 ==.
      000601 88               [ 1] 2143 	push	a
                           000602  2144 	Sstm8s_uart1$UART1_SendData9$452 ==.
                           000602  2145 	Sstm8s_uart1$UART1_SendData9$453 ==.
                                   2146 ;	../SPL/src/stm8s_uart1.c: 489: UART1->CR1 &= ((uint8_t)~UART1_CR1_T8);
                                   2147 ; genPointerGet
      000602 C6 52 34         [ 1] 2148 	ld	a, 0x5234
                                   2149 ; genAnd
      000605 A4 BF            [ 1] 2150 	and	a, #0xbf
                                   2151 ; genPointerSet
      000607 C7 52 34         [ 1] 2152 	ld	0x5234, a
                           00060A  2153 	Sstm8s_uart1$UART1_SendData9$454 ==.
                                   2154 ;	../SPL/src/stm8s_uart1.c: 491: UART1->CR1 |= (uint8_t)(((uint8_t)(Data >> 2)) & UART1_CR1_T8);
                                   2155 ; genPointerGet
      00060A C6 52 34         [ 1] 2156 	ld	a, 0x5234
      00060D 6B 01            [ 1] 2157 	ld	(0x01, sp), a
                                   2158 ; genRightShiftLiteral
      00060F 1E 04            [ 2] 2159 	ldw	x, (0x04, sp)
      000611 54               [ 2] 2160 	srlw	x
      000612 54               [ 2] 2161 	srlw	x
                                   2162 ; genCast
                                   2163 ; genAssign
      000613 9F               [ 1] 2164 	ld	a, xl
                                   2165 ; genAnd
      000614 A4 40            [ 1] 2166 	and	a, #0x40
                                   2167 ; genOr
      000616 1A 01            [ 1] 2168 	or	a, (0x01, sp)
                                   2169 ; genPointerSet
      000618 C7 52 34         [ 1] 2170 	ld	0x5234, a
                           00061B  2171 	Sstm8s_uart1$UART1_SendData9$455 ==.
                                   2172 ;	../SPL/src/stm8s_uart1.c: 493: UART1->DR   = (uint8_t)(Data);
                                   2173 ; genCast
                                   2174 ; genAssign
      00061B 7B 05            [ 1] 2175 	ld	a, (0x05, sp)
                                   2176 ; genPointerSet
      00061D C7 52 31         [ 1] 2177 	ld	0x5231, a
                                   2178 ; genLabel
      000620                       2179 00101$:
                           000620  2180 	Sstm8s_uart1$UART1_SendData9$456 ==.
                                   2181 ;	../SPL/src/stm8s_uart1.c: 494: }
                                   2182 ; genEndFunction
      000620 84               [ 1] 2183 	pop	a
                           000621  2184 	Sstm8s_uart1$UART1_SendData9$457 ==.
                           000621  2185 	Sstm8s_uart1$UART1_SendData9$458 ==.
                           000621  2186 	XG$UART1_SendData9$0$0 ==.
      000621 81               [ 4] 2187 	ret
                           000622  2188 	Sstm8s_uart1$UART1_SendData9$459 ==.
                           000622  2189 	Sstm8s_uart1$UART1_SendBreak$460 ==.
                                   2190 ;	../SPL/src/stm8s_uart1.c: 501: void UART1_SendBreak(void)
                                   2191 ; genLabel
                                   2192 ;	-----------------------------------------
                                   2193 ;	 function UART1_SendBreak
                                   2194 ;	-----------------------------------------
                                   2195 ;	Register assignment is optimal.
                                   2196 ;	Stack space usage: 0 bytes.
      000622                       2197 _UART1_SendBreak:
                           000622  2198 	Sstm8s_uart1$UART1_SendBreak$461 ==.
                           000622  2199 	Sstm8s_uart1$UART1_SendBreak$462 ==.
                                   2200 ;	../SPL/src/stm8s_uart1.c: 503: UART1->CR2 |= UART1_CR2_SBK;
                                   2201 ; genPointerGet
      000622 C6 52 35         [ 1] 2202 	ld	a, 0x5235
                                   2203 ; genOr
      000625 AA 01            [ 1] 2204 	or	a, #0x01
                                   2205 ; genPointerSet
      000627 C7 52 35         [ 1] 2206 	ld	0x5235, a
                                   2207 ; genLabel
      00062A                       2208 00101$:
                           00062A  2209 	Sstm8s_uart1$UART1_SendBreak$463 ==.
                                   2210 ;	../SPL/src/stm8s_uart1.c: 504: }
                                   2211 ; genEndFunction
                           00062A  2212 	Sstm8s_uart1$UART1_SendBreak$464 ==.
                           00062A  2213 	XG$UART1_SendBreak$0$0 ==.
      00062A 81               [ 4] 2214 	ret
                           00062B  2215 	Sstm8s_uart1$UART1_SendBreak$465 ==.
                           00062B  2216 	Sstm8s_uart1$UART1_SetAddress$466 ==.
                                   2217 ;	../SPL/src/stm8s_uart1.c: 511: void UART1_SetAddress(uint8_t UART1_Address)
                                   2218 ; genLabel
                                   2219 ;	-----------------------------------------
                                   2220 ;	 function UART1_SetAddress
                                   2221 ;	-----------------------------------------
                                   2222 ;	Register assignment is optimal.
                                   2223 ;	Stack space usage: 0 bytes.
      00062B                       2224 _UART1_SetAddress:
                           00062B  2225 	Sstm8s_uart1$UART1_SetAddress$467 ==.
                           00062B  2226 	Sstm8s_uart1$UART1_SetAddress$468 ==.
                                   2227 ;	../SPL/src/stm8s_uart1.c: 514: assert_param(IS_UART1_ADDRESS_OK(UART1_Address));
                                   2228 ; genCmp
                                   2229 ; genCmpTop
      00062B 7B 03            [ 1] 2230 	ld	a, (0x03, sp)
      00062D A1 10            [ 1] 2231 	cp	a, #0x10
      00062F 24 03            [ 1] 2232 	jrnc	00110$
      000631 CCr06r43         [ 2] 2233 	jp	00104$
      000634                       2234 00110$:
                                   2235 ; skipping generated iCode
                                   2236 ; skipping iCode since result will be rematerialized
                                   2237 ; skipping iCode since result will be rematerialized
                                   2238 ; genIPush
      000634 4B 02            [ 1] 2239 	push	#0x02
                           000636  2240 	Sstm8s_uart1$UART1_SetAddress$469 ==.
      000636 4B 02            [ 1] 2241 	push	#0x02
                           000638  2242 	Sstm8s_uart1$UART1_SetAddress$470 ==.
      000638 5F               [ 1] 2243 	clrw	x
      000639 89               [ 2] 2244 	pushw	x
                           00063A  2245 	Sstm8s_uart1$UART1_SetAddress$471 ==.
                                   2246 ; genIPush
      00063A 4Br00            [ 1] 2247 	push	#<(___str_0+0)
                           00063C  2248 	Sstm8s_uart1$UART1_SetAddress$472 ==.
      00063C 4Bs00            [ 1] 2249 	push	#((___str_0+0) >> 8)
                           00063E  2250 	Sstm8s_uart1$UART1_SetAddress$473 ==.
                                   2251 ; genCall
      00063E CDr00r00         [ 4] 2252 	call	_assert_failed
      000641 5B 06            [ 2] 2253 	addw	sp, #6
                           000643  2254 	Sstm8s_uart1$UART1_SetAddress$474 ==.
                                   2255 ; genLabel
      000643                       2256 00104$:
                           000643  2257 	Sstm8s_uart1$UART1_SetAddress$475 ==.
                                   2258 ;	../SPL/src/stm8s_uart1.c: 517: UART1->CR4 &= ((uint8_t)~UART1_CR4_ADD);
                                   2259 ; genPointerGet
      000643 C6 52 37         [ 1] 2260 	ld	a, 0x5237
                                   2261 ; genAnd
      000646 A4 F0            [ 1] 2262 	and	a, #0xf0
                                   2263 ; genPointerSet
      000648 C7 52 37         [ 1] 2264 	ld	0x5237, a
                           00064B  2265 	Sstm8s_uart1$UART1_SetAddress$476 ==.
                                   2266 ;	../SPL/src/stm8s_uart1.c: 519: UART1->CR4 |= UART1_Address;
                                   2267 ; genPointerGet
      00064B C6 52 37         [ 1] 2268 	ld	a, 0x5237
                                   2269 ; genOr
      00064E 1A 03            [ 1] 2270 	or	a, (0x03, sp)
                                   2271 ; genPointerSet
      000650 C7 52 37         [ 1] 2272 	ld	0x5237, a
                                   2273 ; genLabel
      000653                       2274 00101$:
                           000653  2275 	Sstm8s_uart1$UART1_SetAddress$477 ==.
                                   2276 ;	../SPL/src/stm8s_uart1.c: 520: }
                                   2277 ; genEndFunction
                           000653  2278 	Sstm8s_uart1$UART1_SetAddress$478 ==.
                           000653  2279 	XG$UART1_SetAddress$0$0 ==.
      000653 81               [ 4] 2280 	ret
                           000654  2281 	Sstm8s_uart1$UART1_SetAddress$479 ==.
                           000654  2282 	Sstm8s_uart1$UART1_SetGuardTime$480 ==.
                                   2283 ;	../SPL/src/stm8s_uart1.c: 528: void UART1_SetGuardTime(uint8_t UART1_GuardTime)
                                   2284 ; genLabel
                                   2285 ;	-----------------------------------------
                                   2286 ;	 function UART1_SetGuardTime
                                   2287 ;	-----------------------------------------
                                   2288 ;	Register assignment is optimal.
                                   2289 ;	Stack space usage: 0 bytes.
      000654                       2290 _UART1_SetGuardTime:
                           000654  2291 	Sstm8s_uart1$UART1_SetGuardTime$481 ==.
                           000654  2292 	Sstm8s_uart1$UART1_SetGuardTime$482 ==.
                                   2293 ;	../SPL/src/stm8s_uart1.c: 531: UART1->GTR = UART1_GuardTime;
                                   2294 ; genPointerSet
      000654 AE 52 39         [ 2] 2295 	ldw	x, #0x5239
      000657 7B 03            [ 1] 2296 	ld	a, (0x03, sp)
      000659 F7               [ 1] 2297 	ld	(x), a
                                   2298 ; genLabel
      00065A                       2299 00101$:
                           00065A  2300 	Sstm8s_uart1$UART1_SetGuardTime$483 ==.
                                   2301 ;	../SPL/src/stm8s_uart1.c: 532: }
                                   2302 ; genEndFunction
                           00065A  2303 	Sstm8s_uart1$UART1_SetGuardTime$484 ==.
                           00065A  2304 	XG$UART1_SetGuardTime$0$0 ==.
      00065A 81               [ 4] 2305 	ret
                           00065B  2306 	Sstm8s_uart1$UART1_SetGuardTime$485 ==.
                           00065B  2307 	Sstm8s_uart1$UART1_SetPrescaler$486 ==.
                                   2308 ;	../SPL/src/stm8s_uart1.c: 556: void UART1_SetPrescaler(uint8_t UART1_Prescaler)
                                   2309 ; genLabel
                                   2310 ;	-----------------------------------------
                                   2311 ;	 function UART1_SetPrescaler
                                   2312 ;	-----------------------------------------
                                   2313 ;	Register assignment is optimal.
                                   2314 ;	Stack space usage: 0 bytes.
      00065B                       2315 _UART1_SetPrescaler:
                           00065B  2316 	Sstm8s_uart1$UART1_SetPrescaler$487 ==.
                           00065B  2317 	Sstm8s_uart1$UART1_SetPrescaler$488 ==.
                                   2318 ;	../SPL/src/stm8s_uart1.c: 559: UART1->PSCR = UART1_Prescaler;
                                   2319 ; genPointerSet
      00065B AE 52 3A         [ 2] 2320 	ldw	x, #0x523a
      00065E 7B 03            [ 1] 2321 	ld	a, (0x03, sp)
      000660 F7               [ 1] 2322 	ld	(x), a
                                   2323 ; genLabel
      000661                       2324 00101$:
                           000661  2325 	Sstm8s_uart1$UART1_SetPrescaler$489 ==.
                                   2326 ;	../SPL/src/stm8s_uart1.c: 560: }
                                   2327 ; genEndFunction
                           000661  2328 	Sstm8s_uart1$UART1_SetPrescaler$490 ==.
                           000661  2329 	XG$UART1_SetPrescaler$0$0 ==.
      000661 81               [ 4] 2330 	ret
                           000662  2331 	Sstm8s_uart1$UART1_SetPrescaler$491 ==.
                           000662  2332 	Sstm8s_uart1$UART1_GetFlagStatus$492 ==.
                                   2333 ;	../SPL/src/stm8s_uart1.c: 568: FlagStatus UART1_GetFlagStatus(UART1_Flag_TypeDef UART1_FLAG)
                                   2334 ; genLabel
                                   2335 ;	-----------------------------------------
                                   2336 ;	 function UART1_GetFlagStatus
                                   2337 ;	-----------------------------------------
                                   2338 ;	Register assignment might be sub-optimal.
                                   2339 ;	Stack space usage: 2 bytes.
      000662                       2340 _UART1_GetFlagStatus:
                           000662  2341 	Sstm8s_uart1$UART1_GetFlagStatus$493 ==.
      000662 89               [ 2] 2342 	pushw	x
                           000663  2343 	Sstm8s_uart1$UART1_GetFlagStatus$494 ==.
                           000663  2344 	Sstm8s_uart1$UART1_GetFlagStatus$495 ==.
                                   2345 ;	../SPL/src/stm8s_uart1.c: 573: assert_param(IS_UART1_FLAG_OK(UART1_FLAG));
                                   2346 ; genCast
                                   2347 ; genAssign
      000663 1E 05            [ 2] 2348 	ldw	x, (0x05, sp)
                                   2349 ; genCmpEQorNE
      000665 A3 01 01         [ 2] 2350 	cpw	x, #0x0101
      000668 26 07            [ 1] 2351 	jrne	00223$
      00066A A6 01            [ 1] 2352 	ld	a, #0x01
      00066C 6B 01            [ 1] 2353 	ld	(0x01, sp), a
      00066E CCr06r73         [ 2] 2354 	jp	00224$
      000671                       2355 00223$:
      000671 0F 01            [ 1] 2356 	clr	(0x01, sp)
      000673                       2357 00224$:
                           000673  2358 	Sstm8s_uart1$UART1_GetFlagStatus$496 ==.
                                   2359 ; genCmpEQorNE
      000673 A3 02 10         [ 2] 2360 	cpw	x, #0x0210
      000676 26 05            [ 1] 2361 	jrne	00226$
      000678 A6 01            [ 1] 2362 	ld	a, #0x01
      00067A CCr06r7E         [ 2] 2363 	jp	00227$
      00067D                       2364 00226$:
      00067D 4F               [ 1] 2365 	clr	a
      00067E                       2366 00227$:
                           00067E  2367 	Sstm8s_uart1$UART1_GetFlagStatus$497 ==.
                                   2368 ; genCmpEQorNE
      00067E A3 00 80         [ 2] 2369 	cpw	x, #0x0080
      000681 26 03            [ 1] 2370 	jrne	00229$
      000683 CCr06rDA         [ 2] 2371 	jp	00119$
      000686                       2372 00229$:
                           000686  2373 	Sstm8s_uart1$UART1_GetFlagStatus$498 ==.
                                   2374 ; skipping generated iCode
                                   2375 ; genCmpEQorNE
      000686 A3 00 40         [ 2] 2376 	cpw	x, #0x0040
      000689 26 03            [ 1] 2377 	jrne	00232$
      00068B CCr06rDA         [ 2] 2378 	jp	00119$
      00068E                       2379 00232$:
                           00068E  2380 	Sstm8s_uart1$UART1_GetFlagStatus$499 ==.
                                   2381 ; skipping generated iCode
                                   2382 ; genCmpEQorNE
      00068E A3 00 20         [ 2] 2383 	cpw	x, #0x0020
      000691 26 03            [ 1] 2384 	jrne	00235$
      000693 CCr06rDA         [ 2] 2385 	jp	00119$
      000696                       2386 00235$:
                           000696  2387 	Sstm8s_uart1$UART1_GetFlagStatus$500 ==.
                                   2388 ; skipping generated iCode
                                   2389 ; genCmpEQorNE
      000696 A3 00 10         [ 2] 2390 	cpw	x, #0x0010
      000699 26 03            [ 1] 2391 	jrne	00238$
      00069B CCr06rDA         [ 2] 2392 	jp	00119$
      00069E                       2393 00238$:
                           00069E  2394 	Sstm8s_uart1$UART1_GetFlagStatus$501 ==.
                                   2395 ; skipping generated iCode
                                   2396 ; genCmpEQorNE
      00069E A3 00 08         [ 2] 2397 	cpw	x, #0x0008
      0006A1 26 03            [ 1] 2398 	jrne	00241$
      0006A3 CCr06rDA         [ 2] 2399 	jp	00119$
      0006A6                       2400 00241$:
                           0006A6  2401 	Sstm8s_uart1$UART1_GetFlagStatus$502 ==.
                                   2402 ; skipping generated iCode
                                   2403 ; genCmpEQorNE
      0006A6 A3 00 04         [ 2] 2404 	cpw	x, #0x0004
      0006A9 26 03            [ 1] 2405 	jrne	00244$
      0006AB CCr06rDA         [ 2] 2406 	jp	00119$
      0006AE                       2407 00244$:
                           0006AE  2408 	Sstm8s_uart1$UART1_GetFlagStatus$503 ==.
                                   2409 ; skipping generated iCode
                                   2410 ; genCmpEQorNE
      0006AE A3 00 02         [ 2] 2411 	cpw	x, #0x0002
      0006B1 26 03            [ 1] 2412 	jrne	00247$
      0006B3 CCr06rDA         [ 2] 2413 	jp	00119$
      0006B6                       2414 00247$:
                           0006B6  2415 	Sstm8s_uart1$UART1_GetFlagStatus$504 ==.
                                   2416 ; skipping generated iCode
                                   2417 ; genCmpEQorNE
      0006B6 5A               [ 2] 2418 	decw	x
      0006B7 26 03            [ 1] 2419 	jrne	00250$
      0006B9 CCr06rDA         [ 2] 2420 	jp	00119$
      0006BC                       2421 00250$:
                           0006BC  2422 	Sstm8s_uart1$UART1_GetFlagStatus$505 ==.
                                   2423 ; skipping generated iCode
                                   2424 ; genIfx
      0006BC 0D 01            [ 1] 2425 	tnz	(0x01, sp)
      0006BE 27 03            [ 1] 2426 	jreq	00252$
      0006C0 CCr06rDA         [ 2] 2427 	jp	00119$
      0006C3                       2428 00252$:
                                   2429 ; genIfx
      0006C3 4D               [ 1] 2430 	tnz	a
      0006C4 27 03            [ 1] 2431 	jreq	00253$
      0006C6 CCr06rDA         [ 2] 2432 	jp	00119$
      0006C9                       2433 00253$:
                                   2434 ; skipping iCode since result will be rematerialized
                                   2435 ; skipping iCode since result will be rematerialized
                                   2436 ; genIPush
      0006C9 88               [ 1] 2437 	push	a
                           0006CA  2438 	Sstm8s_uart1$UART1_GetFlagStatus$506 ==.
      0006CA 4B 3D            [ 1] 2439 	push	#0x3d
                           0006CC  2440 	Sstm8s_uart1$UART1_GetFlagStatus$507 ==.
      0006CC 4B 02            [ 1] 2441 	push	#0x02
                           0006CE  2442 	Sstm8s_uart1$UART1_GetFlagStatus$508 ==.
      0006CE 5F               [ 1] 2443 	clrw	x
      0006CF 89               [ 2] 2444 	pushw	x
                           0006D0  2445 	Sstm8s_uart1$UART1_GetFlagStatus$509 ==.
                                   2446 ; genIPush
      0006D0 4Br00            [ 1] 2447 	push	#<(___str_0+0)
                           0006D2  2448 	Sstm8s_uart1$UART1_GetFlagStatus$510 ==.
      0006D2 4Bs00            [ 1] 2449 	push	#((___str_0+0) >> 8)
                           0006D4  2450 	Sstm8s_uart1$UART1_GetFlagStatus$511 ==.
                                   2451 ; genCall
      0006D4 CDr00r00         [ 4] 2452 	call	_assert_failed
      0006D7 5B 06            [ 2] 2453 	addw	sp, #6
                           0006D9  2454 	Sstm8s_uart1$UART1_GetFlagStatus$512 ==.
      0006D9 84               [ 1] 2455 	pop	a
                           0006DA  2456 	Sstm8s_uart1$UART1_GetFlagStatus$513 ==.
                                   2457 ; genLabel
      0006DA                       2458 00119$:
                           0006DA  2459 	Sstm8s_uart1$UART1_GetFlagStatus$514 ==.
                                   2460 ;	../SPL/src/stm8s_uart1.c: 579: if ((UART1->CR4 & (uint8_t)UART1_FLAG) != (uint8_t)0x00)
                                   2461 ; genCast
                                   2462 ; genAssign
      0006DA 88               [ 1] 2463 	push	a
                           0006DB  2464 	Sstm8s_uart1$UART1_GetFlagStatus$515 ==.
      0006DB 7B 07            [ 1] 2465 	ld	a, (0x07, sp)
      0006DD 6B 03            [ 1] 2466 	ld	(0x03, sp), a
      0006DF 84               [ 1] 2467 	pop	a
                           0006E0  2468 	Sstm8s_uart1$UART1_GetFlagStatus$516 ==.
                           0006E0  2469 	Sstm8s_uart1$UART1_GetFlagStatus$517 ==.
                                   2470 ;	../SPL/src/stm8s_uart1.c: 577: if (UART1_FLAG == UART1_FLAG_LBDF)
                                   2471 ; genAssign
                                   2472 ; genIfx
      0006E0 4D               [ 1] 2473 	tnz	a
      0006E1 26 03            [ 1] 2474 	jrne	00254$
      0006E3 CCr06rFA         [ 2] 2475 	jp	00114$
      0006E6                       2476 00254$:
                           0006E6  2477 	Sstm8s_uart1$UART1_GetFlagStatus$518 ==.
                           0006E6  2478 	Sstm8s_uart1$UART1_GetFlagStatus$519 ==.
                                   2479 ;	../SPL/src/stm8s_uart1.c: 579: if ((UART1->CR4 & (uint8_t)UART1_FLAG) != (uint8_t)0x00)
                                   2480 ; genPointerGet
      0006E6 C6 52 37         [ 1] 2481 	ld	a, 0x5237
                                   2482 ; genAnd
      0006E9 14 02            [ 1] 2483 	and	a, (0x02, sp)
                                   2484 ; genIfx
      0006EB 4D               [ 1] 2485 	tnz	a
      0006EC 26 03            [ 1] 2486 	jrne	00255$
      0006EE CCr06rF6         [ 2] 2487 	jp	00102$
      0006F1                       2488 00255$:
                           0006F1  2489 	Sstm8s_uart1$UART1_GetFlagStatus$520 ==.
                           0006F1  2490 	Sstm8s_uart1$UART1_GetFlagStatus$521 ==.
                                   2491 ;	../SPL/src/stm8s_uart1.c: 582: status = SET;
                                   2492 ; genAssign
      0006F1 A6 01            [ 1] 2493 	ld	a, #0x01
                           0006F3  2494 	Sstm8s_uart1$UART1_GetFlagStatus$522 ==.
                                   2495 ; genGoto
      0006F3 CCr07r27         [ 2] 2496 	jp	00115$
                                   2497 ; genLabel
      0006F6                       2498 00102$:
                           0006F6  2499 	Sstm8s_uart1$UART1_GetFlagStatus$523 ==.
                           0006F6  2500 	Sstm8s_uart1$UART1_GetFlagStatus$524 ==.
                                   2501 ;	../SPL/src/stm8s_uart1.c: 587: status = RESET;
                                   2502 ; genAssign
      0006F6 4F               [ 1] 2503 	clr	a
                           0006F7  2504 	Sstm8s_uart1$UART1_GetFlagStatus$525 ==.
                                   2505 ; genGoto
      0006F7 CCr07r27         [ 2] 2506 	jp	00115$
                                   2507 ; genLabel
      0006FA                       2508 00114$:
                           0006FA  2509 	Sstm8s_uart1$UART1_GetFlagStatus$526 ==.
                                   2510 ;	../SPL/src/stm8s_uart1.c: 590: else if (UART1_FLAG == UART1_FLAG_SBK)
                                   2511 ; genAssign
      0006FA 7B 01            [ 1] 2512 	ld	a, (0x01, sp)
                                   2513 ; genIfx
      0006FC 4D               [ 1] 2514 	tnz	a
      0006FD 26 03            [ 1] 2515 	jrne	00256$
      0006FF CCr07r16         [ 2] 2516 	jp	00111$
      000702                       2517 00256$:
                           000702  2518 	Sstm8s_uart1$UART1_GetFlagStatus$527 ==.
                           000702  2519 	Sstm8s_uart1$UART1_GetFlagStatus$528 ==.
                                   2520 ;	../SPL/src/stm8s_uart1.c: 592: if ((UART1->CR2 & (uint8_t)UART1_FLAG) != (uint8_t)0x00)
                                   2521 ; genPointerGet
      000702 C6 52 35         [ 1] 2522 	ld	a, 0x5235
                                   2523 ; genAnd
      000705 14 02            [ 1] 2524 	and	a, (0x02, sp)
                                   2525 ; genIfx
      000707 4D               [ 1] 2526 	tnz	a
      000708 26 03            [ 1] 2527 	jrne	00257$
      00070A CCr07r12         [ 2] 2528 	jp	00105$
      00070D                       2529 00257$:
                           00070D  2530 	Sstm8s_uart1$UART1_GetFlagStatus$529 ==.
                           00070D  2531 	Sstm8s_uart1$UART1_GetFlagStatus$530 ==.
                                   2532 ;	../SPL/src/stm8s_uart1.c: 595: status = SET;
                                   2533 ; genAssign
      00070D A6 01            [ 1] 2534 	ld	a, #0x01
                           00070F  2535 	Sstm8s_uart1$UART1_GetFlagStatus$531 ==.
                                   2536 ; genGoto
      00070F CCr07r27         [ 2] 2537 	jp	00115$
                                   2538 ; genLabel
      000712                       2539 00105$:
                           000712  2540 	Sstm8s_uart1$UART1_GetFlagStatus$532 ==.
                           000712  2541 	Sstm8s_uart1$UART1_GetFlagStatus$533 ==.
                                   2542 ;	../SPL/src/stm8s_uart1.c: 600: status = RESET;
                                   2543 ; genAssign
      000712 4F               [ 1] 2544 	clr	a
                           000713  2545 	Sstm8s_uart1$UART1_GetFlagStatus$534 ==.
                                   2546 ; genGoto
      000713 CCr07r27         [ 2] 2547 	jp	00115$
                                   2548 ; genLabel
      000716                       2549 00111$:
                           000716  2550 	Sstm8s_uart1$UART1_GetFlagStatus$535 ==.
                           000716  2551 	Sstm8s_uart1$UART1_GetFlagStatus$536 ==.
                                   2552 ;	../SPL/src/stm8s_uart1.c: 605: if ((UART1->SR & (uint8_t)UART1_FLAG) != (uint8_t)0x00)
                                   2553 ; genPointerGet
      000716 C6 52 30         [ 1] 2554 	ld	a, 0x5230
                                   2555 ; genAnd
      000719 14 02            [ 1] 2556 	and	a, (0x02, sp)
                                   2557 ; genIfx
      00071B 4D               [ 1] 2558 	tnz	a
      00071C 26 03            [ 1] 2559 	jrne	00258$
      00071E CCr07r26         [ 2] 2560 	jp	00108$
      000721                       2561 00258$:
                           000721  2562 	Sstm8s_uart1$UART1_GetFlagStatus$537 ==.
                           000721  2563 	Sstm8s_uart1$UART1_GetFlagStatus$538 ==.
                                   2564 ;	../SPL/src/stm8s_uart1.c: 608: status = SET;
                                   2565 ; genAssign
      000721 A6 01            [ 1] 2566 	ld	a, #0x01
                           000723  2567 	Sstm8s_uart1$UART1_GetFlagStatus$539 ==.
                                   2568 ; genGoto
      000723 CCr07r27         [ 2] 2569 	jp	00115$
                                   2570 ; genLabel
      000726                       2571 00108$:
                           000726  2572 	Sstm8s_uart1$UART1_GetFlagStatus$540 ==.
                           000726  2573 	Sstm8s_uart1$UART1_GetFlagStatus$541 ==.
                                   2574 ;	../SPL/src/stm8s_uart1.c: 613: status = RESET;
                                   2575 ; genAssign
      000726 4F               [ 1] 2576 	clr	a
                           000727  2577 	Sstm8s_uart1$UART1_GetFlagStatus$542 ==.
                                   2578 ; genLabel
      000727                       2579 00115$:
                           000727  2580 	Sstm8s_uart1$UART1_GetFlagStatus$543 ==.
                                   2581 ;	../SPL/src/stm8s_uart1.c: 617: return status;
                                   2582 ; genReturn
                                   2583 ; genLabel
      000727                       2584 00116$:
                           000727  2585 	Sstm8s_uart1$UART1_GetFlagStatus$544 ==.
                                   2586 ;	../SPL/src/stm8s_uart1.c: 618: }
                                   2587 ; genEndFunction
      000727 85               [ 2] 2588 	popw	x
                           000728  2589 	Sstm8s_uart1$UART1_GetFlagStatus$545 ==.
                           000728  2590 	Sstm8s_uart1$UART1_GetFlagStatus$546 ==.
                           000728  2591 	XG$UART1_GetFlagStatus$0$0 ==.
      000728 81               [ 4] 2592 	ret
                           000729  2593 	Sstm8s_uart1$UART1_GetFlagStatus$547 ==.
                           000729  2594 	Sstm8s_uart1$UART1_ClearFlag$548 ==.
                                   2595 ;	../SPL/src/stm8s_uart1.c: 646: void UART1_ClearFlag(UART1_Flag_TypeDef UART1_FLAG)
                                   2596 ; genLabel
                                   2597 ;	-----------------------------------------
                                   2598 ;	 function UART1_ClearFlag
                                   2599 ;	-----------------------------------------
                                   2600 ;	Register assignment might be sub-optimal.
                                   2601 ;	Stack space usage: 0 bytes.
      000729                       2602 _UART1_ClearFlag:
                           000729  2603 	Sstm8s_uart1$UART1_ClearFlag$549 ==.
                           000729  2604 	Sstm8s_uart1$UART1_ClearFlag$550 ==.
                                   2605 ;	../SPL/src/stm8s_uart1.c: 648: assert_param(IS_UART1_CLEAR_FLAG_OK(UART1_FLAG));
                                   2606 ; genCast
                                   2607 ; genAssign
      000729 1E 03            [ 2] 2608 	ldw	x, (0x03, sp)
                                   2609 ; genCmpEQorNE
      00072B A3 00 20         [ 2] 2610 	cpw	x, #0x0020
      00072E 26 05            [ 1] 2611 	jrne	00127$
      000730 A6 01            [ 1] 2612 	ld	a, #0x01
      000732 CCr07r36         [ 2] 2613 	jp	00128$
      000735                       2614 00127$:
      000735 4F               [ 1] 2615 	clr	a
      000736                       2616 00128$:
                           000736  2617 	Sstm8s_uart1$UART1_ClearFlag$551 ==.
                                   2618 ; genIfx
      000736 4D               [ 1] 2619 	tnz	a
      000737 27 03            [ 1] 2620 	jreq	00129$
      000739 CCr07r55         [ 2] 2621 	jp	00107$
      00073C                       2622 00129$:
                                   2623 ; genCmpEQorNE
      00073C A3 02 10         [ 2] 2624 	cpw	x, #0x0210
      00073F 26 03            [ 1] 2625 	jrne	00131$
      000741 CCr07r55         [ 2] 2626 	jp	00107$
      000744                       2627 00131$:
                           000744  2628 	Sstm8s_uart1$UART1_ClearFlag$552 ==.
                                   2629 ; skipping generated iCode
                                   2630 ; skipping iCode since result will be rematerialized
                                   2631 ; skipping iCode since result will be rematerialized
                                   2632 ; genIPush
      000744 88               [ 1] 2633 	push	a
                           000745  2634 	Sstm8s_uart1$UART1_ClearFlag$553 ==.
      000745 4B 88            [ 1] 2635 	push	#0x88
                           000747  2636 	Sstm8s_uart1$UART1_ClearFlag$554 ==.
      000747 4B 02            [ 1] 2637 	push	#0x02
                           000749  2638 	Sstm8s_uart1$UART1_ClearFlag$555 ==.
      000749 5F               [ 1] 2639 	clrw	x
      00074A 89               [ 2] 2640 	pushw	x
                           00074B  2641 	Sstm8s_uart1$UART1_ClearFlag$556 ==.
                                   2642 ; genIPush
      00074B 4Br00            [ 1] 2643 	push	#<(___str_0+0)
                           00074D  2644 	Sstm8s_uart1$UART1_ClearFlag$557 ==.
      00074D 4Bs00            [ 1] 2645 	push	#((___str_0+0) >> 8)
                           00074F  2646 	Sstm8s_uart1$UART1_ClearFlag$558 ==.
                                   2647 ; genCall
      00074F CDr00r00         [ 4] 2648 	call	_assert_failed
      000752 5B 06            [ 2] 2649 	addw	sp, #6
                           000754  2650 	Sstm8s_uart1$UART1_ClearFlag$559 ==.
      000754 84               [ 1] 2651 	pop	a
                           000755  2652 	Sstm8s_uart1$UART1_ClearFlag$560 ==.
                                   2653 ; genLabel
      000755                       2654 00107$:
                           000755  2655 	Sstm8s_uart1$UART1_ClearFlag$561 ==.
                                   2656 ;	../SPL/src/stm8s_uart1.c: 651: if (UART1_FLAG == UART1_FLAG_RXNE)
                                   2657 ; genAssign
                                   2658 ; genIfx
      000755 4D               [ 1] 2659 	tnz	a
      000756 26 03            [ 1] 2660 	jrne	00133$
      000758 CCr07r62         [ 2] 2661 	jp	00102$
      00075B                       2662 00133$:
                           00075B  2663 	Sstm8s_uart1$UART1_ClearFlag$562 ==.
                           00075B  2664 	Sstm8s_uart1$UART1_ClearFlag$563 ==.
                                   2665 ;	../SPL/src/stm8s_uart1.c: 653: UART1->SR = (uint8_t)~(UART1_SR_RXNE);
                                   2666 ; genPointerSet
      00075B 35 DF 52 30      [ 1] 2667 	mov	0x5230+0, #0xdf
                           00075F  2668 	Sstm8s_uart1$UART1_ClearFlag$564 ==.
                                   2669 ; genGoto
      00075F CCr07r6A         [ 2] 2670 	jp	00104$
                                   2671 ; genLabel
      000762                       2672 00102$:
                           000762  2673 	Sstm8s_uart1$UART1_ClearFlag$565 ==.
                           000762  2674 	Sstm8s_uart1$UART1_ClearFlag$566 ==.
                                   2675 ;	../SPL/src/stm8s_uart1.c: 658: UART1->CR4 &= (uint8_t)~(UART1_CR4_LBDF);
                                   2676 ; genPointerGet
      000762 C6 52 37         [ 1] 2677 	ld	a, 0x5237
                                   2678 ; genAnd
      000765 A4 EF            [ 1] 2679 	and	a, #0xef
                                   2680 ; genPointerSet
      000767 C7 52 37         [ 1] 2681 	ld	0x5237, a
                           00076A  2682 	Sstm8s_uart1$UART1_ClearFlag$567 ==.
                                   2683 ; genLabel
      00076A                       2684 00104$:
                           00076A  2685 	Sstm8s_uart1$UART1_ClearFlag$568 ==.
                                   2686 ;	../SPL/src/stm8s_uart1.c: 660: }
                                   2687 ; genEndFunction
                           00076A  2688 	Sstm8s_uart1$UART1_ClearFlag$569 ==.
                           00076A  2689 	XG$UART1_ClearFlag$0$0 ==.
      00076A 81               [ 4] 2690 	ret
                           00076B  2691 	Sstm8s_uart1$UART1_ClearFlag$570 ==.
                           00076B  2692 	Sstm8s_uart1$UART1_GetITStatus$571 ==.
                                   2693 ;	../SPL/src/stm8s_uart1.c: 675: ITStatus UART1_GetITStatus(UART1_IT_TypeDef UART1_IT)
                                   2694 ; genLabel
                                   2695 ;	-----------------------------------------
                                   2696 ;	 function UART1_GetITStatus
                                   2697 ;	-----------------------------------------
                                   2698 ;	Register assignment might be sub-optimal.
                                   2699 ;	Stack space usage: 4 bytes.
      00076B                       2700 _UART1_GetITStatus:
                           00076B  2701 	Sstm8s_uart1$UART1_GetITStatus$572 ==.
      00076B 52 04            [ 2] 2702 	sub	sp, #4
                           00076D  2703 	Sstm8s_uart1$UART1_GetITStatus$573 ==.
                           00076D  2704 	Sstm8s_uart1$UART1_GetITStatus$574 ==.
                                   2705 ;	../SPL/src/stm8s_uart1.c: 684: assert_param(IS_UART1_GET_IT_OK(UART1_IT));
                                   2706 ; genCast
                                   2707 ; genAssign
      00076D 1E 07            [ 2] 2708 	ldw	x, (0x07, sp)
                                   2709 ; genCmpEQorNE
      00076F A3 03 46         [ 2] 2710 	cpw	x, #0x0346
      000772 26 07            [ 1] 2711 	jrne	00217$
      000774 A6 01            [ 1] 2712 	ld	a, #0x01
      000776 6B 01            [ 1] 2713 	ld	(0x01, sp), a
      000778 CCr07r7D         [ 2] 2714 	jp	00218$
      00077B                       2715 00217$:
      00077B 0F 01            [ 1] 2716 	clr	(0x01, sp)
      00077D                       2717 00218$:
                           00077D  2718 	Sstm8s_uart1$UART1_GetITStatus$575 ==.
                                   2719 ; genCmpEQorNE
      00077D A3 01 00         [ 2] 2720 	cpw	x, #0x0100
      000780 26 07            [ 1] 2721 	jrne	00220$
      000782 A6 01            [ 1] 2722 	ld	a, #0x01
      000784 6B 02            [ 1] 2723 	ld	(0x02, sp), a
      000786 CCr07r8B         [ 2] 2724 	jp	00221$
      000789                       2725 00220$:
      000789 0F 02            [ 1] 2726 	clr	(0x02, sp)
      00078B                       2727 00221$:
                           00078B  2728 	Sstm8s_uart1$UART1_GetITStatus$576 ==.
                                   2729 ; genCmpEQorNE
      00078B A3 02 77         [ 2] 2730 	cpw	x, #0x0277
      00078E 26 03            [ 1] 2731 	jrne	00223$
      000790 CCr07rD0         [ 2] 2732 	jp	00122$
      000793                       2733 00223$:
                           000793  2734 	Sstm8s_uart1$UART1_GetITStatus$577 ==.
                                   2735 ; skipping generated iCode
                                   2736 ; genCmpEQorNE
      000793 A3 02 66         [ 2] 2737 	cpw	x, #0x0266
      000796 26 03            [ 1] 2738 	jrne	00226$
      000798 CCr07rD0         [ 2] 2739 	jp	00122$
      00079B                       2740 00226$:
                           00079B  2741 	Sstm8s_uart1$UART1_GetITStatus$578 ==.
                                   2742 ; skipping generated iCode
                                   2743 ; genCmpEQorNE
      00079B A3 02 55         [ 2] 2744 	cpw	x, #0x0255
      00079E 26 03            [ 1] 2745 	jrne	00229$
      0007A0 CCr07rD0         [ 2] 2746 	jp	00122$
      0007A3                       2747 00229$:
                           0007A3  2748 	Sstm8s_uart1$UART1_GetITStatus$579 ==.
                                   2749 ; skipping generated iCode
                                   2750 ; genCmpEQorNE
      0007A3 A3 02 44         [ 2] 2751 	cpw	x, #0x0244
      0007A6 26 03            [ 1] 2752 	jrne	00232$
      0007A8 CCr07rD0         [ 2] 2753 	jp	00122$
      0007AB                       2754 00232$:
                           0007AB  2755 	Sstm8s_uart1$UART1_GetITStatus$580 ==.
                                   2756 ; skipping generated iCode
                                   2757 ; genCmpEQorNE
      0007AB A3 02 35         [ 2] 2758 	cpw	x, #0x0235
      0007AE 26 03            [ 1] 2759 	jrne	00235$
      0007B0 CCr07rD0         [ 2] 2760 	jp	00122$
      0007B3                       2761 00235$:
                           0007B3  2762 	Sstm8s_uart1$UART1_GetITStatus$581 ==.
                                   2763 ; skipping generated iCode
                                   2764 ; genIfx
      0007B3 0D 01            [ 1] 2765 	tnz	(0x01, sp)
      0007B5 27 03            [ 1] 2766 	jreq	00237$
      0007B7 CCr07rD0         [ 2] 2767 	jp	00122$
      0007BA                       2768 00237$:
                                   2769 ; genIfx
      0007BA 0D 02            [ 1] 2770 	tnz	(0x02, sp)
      0007BC 27 03            [ 1] 2771 	jreq	00238$
      0007BE CCr07rD0         [ 2] 2772 	jp	00122$
      0007C1                       2773 00238$:
                                   2774 ; skipping iCode since result will be rematerialized
                                   2775 ; skipping iCode since result will be rematerialized
                                   2776 ; genIPush
      0007C1 4B AC            [ 1] 2777 	push	#0xac
                           0007C3  2778 	Sstm8s_uart1$UART1_GetITStatus$582 ==.
      0007C3 4B 02            [ 1] 2779 	push	#0x02
                           0007C5  2780 	Sstm8s_uart1$UART1_GetITStatus$583 ==.
      0007C5 5F               [ 1] 2781 	clrw	x
      0007C6 89               [ 2] 2782 	pushw	x
                           0007C7  2783 	Sstm8s_uart1$UART1_GetITStatus$584 ==.
                                   2784 ; genIPush
      0007C7 4Br00            [ 1] 2785 	push	#<(___str_0+0)
                           0007C9  2786 	Sstm8s_uart1$UART1_GetITStatus$585 ==.
      0007C9 4Bs00            [ 1] 2787 	push	#((___str_0+0) >> 8)
                           0007CB  2788 	Sstm8s_uart1$UART1_GetITStatus$586 ==.
                                   2789 ; genCall
      0007CB CDr00r00         [ 4] 2790 	call	_assert_failed
      0007CE 5B 06            [ 2] 2791 	addw	sp, #6
                           0007D0  2792 	Sstm8s_uart1$UART1_GetITStatus$587 ==.
                                   2793 ; genLabel
      0007D0                       2794 00122$:
                           0007D0  2795 	Sstm8s_uart1$UART1_GetITStatus$588 ==.
                                   2796 ;	../SPL/src/stm8s_uart1.c: 687: itpos = (uint8_t)((uint8_t)1 << (uint8_t)((uint8_t)UART1_IT & (uint8_t)0x0F));
                                   2797 ; genCast
                                   2798 ; genAssign
      0007D0 7B 08            [ 1] 2799 	ld	a, (0x08, sp)
      0007D2 97               [ 1] 2800 	ld	xl, a
                                   2801 ; genAnd
      0007D3 9F               [ 1] 2802 	ld	a, xl
      0007D4 A4 0F            [ 1] 2803 	and	a, #0x0f
                                   2804 ; genLeftShift
      0007D6 88               [ 1] 2805 	push	a
                           0007D7  2806 	Sstm8s_uart1$UART1_GetITStatus$589 ==.
      0007D7 A6 01            [ 1] 2807 	ld	a, #0x01
      0007D9 6B 04            [ 1] 2808 	ld	(0x04, sp), a
      0007DB 84               [ 1] 2809 	pop	a
                           0007DC  2810 	Sstm8s_uart1$UART1_GetITStatus$590 ==.
      0007DC 4D               [ 1] 2811 	tnz	a
      0007DD 27 05            [ 1] 2812 	jreq	00240$
      0007DF                       2813 00239$:
      0007DF 08 03            [ 1] 2814 	sll	(0x03, sp)
      0007E1 4A               [ 1] 2815 	dec	a
      0007E2 26 FB            [ 1] 2816 	jrne	00239$
      0007E4                       2817 00240$:
                           0007E4  2818 	Sstm8s_uart1$UART1_GetITStatus$591 ==.
                                   2819 ;	../SPL/src/stm8s_uart1.c: 689: itmask1 = (uint8_t)((uint8_t)UART1_IT >> (uint8_t)4);
                                   2820 ; genRightShiftLiteral
      0007E4 9F               [ 1] 2821 	ld	a, xl
      0007E5 4E               [ 1] 2822 	swap	a
      0007E6 A4 0F            [ 1] 2823 	and	a, #0x0f
                           0007E8  2824 	Sstm8s_uart1$UART1_GetITStatus$592 ==.
                                   2825 ;	../SPL/src/stm8s_uart1.c: 691: itmask2 = (uint8_t)((uint8_t)1 << itmask1);
                                   2826 ; genLeftShift
      0007E8 88               [ 1] 2827 	push	a
                           0007E9  2828 	Sstm8s_uart1$UART1_GetITStatus$593 ==.
      0007E9 A6 01            [ 1] 2829 	ld	a, #0x01
      0007EB 6B 05            [ 1] 2830 	ld	(0x05, sp), a
      0007ED 84               [ 1] 2831 	pop	a
                           0007EE  2832 	Sstm8s_uart1$UART1_GetITStatus$594 ==.
      0007EE 4D               [ 1] 2833 	tnz	a
      0007EF 27 05            [ 1] 2834 	jreq	00242$
      0007F1                       2835 00241$:
      0007F1 08 04            [ 1] 2836 	sll	(0x04, sp)
      0007F3 4A               [ 1] 2837 	dec	a
      0007F4 26 FB            [ 1] 2838 	jrne	00241$
      0007F6                       2839 00242$:
                           0007F6  2840 	Sstm8s_uart1$UART1_GetITStatus$595 ==.
                                   2841 ;	../SPL/src/stm8s_uart1.c: 695: if (UART1_IT == UART1_IT_PE)
                                   2842 ; genAssign
      0007F6 7B 02            [ 1] 2843 	ld	a, (0x02, sp)
                                   2844 ; genIfx
      0007F8 4D               [ 1] 2845 	tnz	a
      0007F9 26 03            [ 1] 2846 	jrne	00243$
      0007FB CCr08r1F         [ 2] 2847 	jp	00117$
      0007FE                       2848 00243$:
                           0007FE  2849 	Sstm8s_uart1$UART1_GetITStatus$596 ==.
                           0007FE  2850 	Sstm8s_uart1$UART1_GetITStatus$597 ==.
                                   2851 ;	../SPL/src/stm8s_uart1.c: 698: enablestatus = (uint8_t)((uint8_t)UART1->CR1 & itmask2);
                                   2852 ; genPointerGet
      0007FE C6 52 34         [ 1] 2853 	ld	a, 0x5234
                                   2854 ; genAnd
      000801 14 04            [ 1] 2855 	and	a, (0x04, sp)
      000803 97               [ 1] 2856 	ld	xl, a
                           000804  2857 	Sstm8s_uart1$UART1_GetITStatus$598 ==.
                                   2858 ;	../SPL/src/stm8s_uart1.c: 701: if (((UART1->SR & itpos) != (uint8_t)0x00) && enablestatus)
                                   2859 ; genPointerGet
      000804 C6 52 30         [ 1] 2860 	ld	a, 0x5230
                                   2861 ; genAnd
      000807 14 03            [ 1] 2862 	and	a, (0x03, sp)
                                   2863 ; genIfx
      000809 4D               [ 1] 2864 	tnz	a
      00080A 26 03            [ 1] 2865 	jrne	00244$
      00080C CCr08r1B         [ 2] 2866 	jp	00102$
      00080F                       2867 00244$:
                                   2868 ; genIfx
      00080F 9F               [ 1] 2869 	ld	a, xl
      000810 4D               [ 1] 2870 	tnz	a
      000811 26 03            [ 1] 2871 	jrne	00245$
      000813 CCr08r1B         [ 2] 2872 	jp	00102$
      000816                       2873 00245$:
                           000816  2874 	Sstm8s_uart1$UART1_GetITStatus$599 ==.
                           000816  2875 	Sstm8s_uart1$UART1_GetITStatus$600 ==.
                                   2876 ;	../SPL/src/stm8s_uart1.c: 704: pendingbitstatus = SET;
                                   2877 ; genAssign
      000816 A6 01            [ 1] 2878 	ld	a, #0x01
                           000818  2879 	Sstm8s_uart1$UART1_GetITStatus$601 ==.
                                   2880 ; genGoto
      000818 CCr08r66         [ 2] 2881 	jp	00118$
                                   2882 ; genLabel
      00081B                       2883 00102$:
                           00081B  2884 	Sstm8s_uart1$UART1_GetITStatus$602 ==.
                           00081B  2885 	Sstm8s_uart1$UART1_GetITStatus$603 ==.
                                   2886 ;	../SPL/src/stm8s_uart1.c: 709: pendingbitstatus = RESET;
                                   2887 ; genAssign
      00081B 4F               [ 1] 2888 	clr	a
                           00081C  2889 	Sstm8s_uart1$UART1_GetITStatus$604 ==.
                                   2890 ; genGoto
      00081C CCr08r66         [ 2] 2891 	jp	00118$
                                   2892 ; genLabel
      00081F                       2893 00117$:
                           00081F  2894 	Sstm8s_uart1$UART1_GetITStatus$605 ==.
                                   2895 ;	../SPL/src/stm8s_uart1.c: 713: else if (UART1_IT == UART1_IT_LBDF)
                                   2896 ; genAssign
      00081F 7B 01            [ 1] 2897 	ld	a, (0x01, sp)
                                   2898 ; genIfx
      000821 4D               [ 1] 2899 	tnz	a
      000822 26 03            [ 1] 2900 	jrne	00246$
      000824 CCr08r48         [ 2] 2901 	jp	00114$
      000827                       2902 00246$:
                           000827  2903 	Sstm8s_uart1$UART1_GetITStatus$606 ==.
                           000827  2904 	Sstm8s_uart1$UART1_GetITStatus$607 ==.
                                   2905 ;	../SPL/src/stm8s_uart1.c: 716: enablestatus = (uint8_t)((uint8_t)UART1->CR4 & itmask2);
                                   2906 ; genPointerGet
      000827 C6 52 37         [ 1] 2907 	ld	a, 0x5237
                                   2908 ; genAnd
      00082A 14 04            [ 1] 2909 	and	a, (0x04, sp)
                                   2910 ; genAssign
      00082C 97               [ 1] 2911 	ld	xl, a
                           00082D  2912 	Sstm8s_uart1$UART1_GetITStatus$608 ==.
                                   2913 ;	../SPL/src/stm8s_uart1.c: 718: if (((UART1->CR4 & itpos) != (uint8_t)0x00) && enablestatus)
                                   2914 ; genPointerGet
      00082D C6 52 37         [ 1] 2915 	ld	a, 0x5237
                                   2916 ; genAnd
      000830 14 03            [ 1] 2917 	and	a, (0x03, sp)
                                   2918 ; genIfx
      000832 4D               [ 1] 2919 	tnz	a
      000833 26 03            [ 1] 2920 	jrne	00247$
      000835 CCr08r44         [ 2] 2921 	jp	00106$
      000838                       2922 00247$:
                                   2923 ; genIfx
      000838 9F               [ 1] 2924 	ld	a, xl
      000839 4D               [ 1] 2925 	tnz	a
      00083A 26 03            [ 1] 2926 	jrne	00248$
      00083C CCr08r44         [ 2] 2927 	jp	00106$
      00083F                       2928 00248$:
                           00083F  2929 	Sstm8s_uart1$UART1_GetITStatus$609 ==.
                           00083F  2930 	Sstm8s_uart1$UART1_GetITStatus$610 ==.
                                   2931 ;	../SPL/src/stm8s_uart1.c: 721: pendingbitstatus = SET;
                                   2932 ; genAssign
      00083F A6 01            [ 1] 2933 	ld	a, #0x01
                           000841  2934 	Sstm8s_uart1$UART1_GetITStatus$611 ==.
                                   2935 ; genGoto
      000841 CCr08r66         [ 2] 2936 	jp	00118$
                                   2937 ; genLabel
      000844                       2938 00106$:
                           000844  2939 	Sstm8s_uart1$UART1_GetITStatus$612 ==.
                           000844  2940 	Sstm8s_uart1$UART1_GetITStatus$613 ==.
                                   2941 ;	../SPL/src/stm8s_uart1.c: 726: pendingbitstatus = RESET;
                                   2942 ; genAssign
      000844 4F               [ 1] 2943 	clr	a
                           000845  2944 	Sstm8s_uart1$UART1_GetITStatus$614 ==.
                                   2945 ; genGoto
      000845 CCr08r66         [ 2] 2946 	jp	00118$
                                   2947 ; genLabel
      000848                       2948 00114$:
                           000848  2949 	Sstm8s_uart1$UART1_GetITStatus$615 ==.
                           000848  2950 	Sstm8s_uart1$UART1_GetITStatus$616 ==.
                                   2951 ;	../SPL/src/stm8s_uart1.c: 732: enablestatus = (uint8_t)((uint8_t)UART1->CR2 & itmask2);
                                   2952 ; genPointerGet
      000848 C6 52 35         [ 1] 2953 	ld	a, 0x5235
                                   2954 ; genAnd
      00084B 14 04            [ 1] 2955 	and	a, (0x04, sp)
      00084D 97               [ 1] 2956 	ld	xl, a
                           00084E  2957 	Sstm8s_uart1$UART1_GetITStatus$617 ==.
                                   2958 ;	../SPL/src/stm8s_uart1.c: 734: if (((UART1->SR & itpos) != (uint8_t)0x00) && enablestatus)
                                   2959 ; genPointerGet
      00084E C6 52 30         [ 1] 2960 	ld	a, 0x5230
                                   2961 ; genAnd
      000851 14 03            [ 1] 2962 	and	a, (0x03, sp)
                                   2963 ; genIfx
      000853 4D               [ 1] 2964 	tnz	a
      000854 26 03            [ 1] 2965 	jrne	00249$
      000856 CCr08r65         [ 2] 2966 	jp	00110$
      000859                       2967 00249$:
                                   2968 ; genIfx
      000859 9F               [ 1] 2969 	ld	a, xl
      00085A 4D               [ 1] 2970 	tnz	a
      00085B 26 03            [ 1] 2971 	jrne	00250$
      00085D CCr08r65         [ 2] 2972 	jp	00110$
      000860                       2973 00250$:
                           000860  2974 	Sstm8s_uart1$UART1_GetITStatus$618 ==.
                           000860  2975 	Sstm8s_uart1$UART1_GetITStatus$619 ==.
                                   2976 ;	../SPL/src/stm8s_uart1.c: 737: pendingbitstatus = SET;
                                   2977 ; genAssign
      000860 A6 01            [ 1] 2978 	ld	a, #0x01
                           000862  2979 	Sstm8s_uart1$UART1_GetITStatus$620 ==.
                                   2980 ; genGoto
      000862 CCr08r66         [ 2] 2981 	jp	00118$
                                   2982 ; genLabel
      000865                       2983 00110$:
                           000865  2984 	Sstm8s_uart1$UART1_GetITStatus$621 ==.
                           000865  2985 	Sstm8s_uart1$UART1_GetITStatus$622 ==.
                                   2986 ;	../SPL/src/stm8s_uart1.c: 742: pendingbitstatus = RESET;
                                   2987 ; genAssign
      000865 4F               [ 1] 2988 	clr	a
                           000866  2989 	Sstm8s_uart1$UART1_GetITStatus$623 ==.
                                   2990 ; genLabel
      000866                       2991 00118$:
                           000866  2992 	Sstm8s_uart1$UART1_GetITStatus$624 ==.
                                   2993 ;	../SPL/src/stm8s_uart1.c: 747: return  pendingbitstatus;
                                   2994 ; genReturn
                                   2995 ; genLabel
      000866                       2996 00119$:
                           000866  2997 	Sstm8s_uart1$UART1_GetITStatus$625 ==.
                                   2998 ;	../SPL/src/stm8s_uart1.c: 748: }
                                   2999 ; genEndFunction
      000866 5B 04            [ 2] 3000 	addw	sp, #4
                           000868  3001 	Sstm8s_uart1$UART1_GetITStatus$626 ==.
                           000868  3002 	Sstm8s_uart1$UART1_GetITStatus$627 ==.
                           000868  3003 	XG$UART1_GetITStatus$0$0 ==.
      000868 81               [ 4] 3004 	ret
                           000869  3005 	Sstm8s_uart1$UART1_GetITStatus$628 ==.
                           000869  3006 	Sstm8s_uart1$UART1_ClearITPendingBit$629 ==.
                                   3007 ;	../SPL/src/stm8s_uart1.c: 775: void UART1_ClearITPendingBit(UART1_IT_TypeDef UART1_IT)
                                   3008 ; genLabel
                                   3009 ;	-----------------------------------------
                                   3010 ;	 function UART1_ClearITPendingBit
                                   3011 ;	-----------------------------------------
                                   3012 ;	Register assignment might be sub-optimal.
                                   3013 ;	Stack space usage: 0 bytes.
      000869                       3014 _UART1_ClearITPendingBit:
                           000869  3015 	Sstm8s_uart1$UART1_ClearITPendingBit$630 ==.
                           000869  3016 	Sstm8s_uart1$UART1_ClearITPendingBit$631 ==.
                                   3017 ;	../SPL/src/stm8s_uart1.c: 777: assert_param(IS_UART1_CLEAR_IT_OK(UART1_IT));
                                   3018 ; genCast
                                   3019 ; genAssign
      000869 1E 03            [ 2] 3020 	ldw	x, (0x03, sp)
                                   3021 ; genCmpEQorNE
      00086B A3 02 55         [ 2] 3022 	cpw	x, #0x0255
      00086E 26 05            [ 1] 3023 	jrne	00127$
      000870 A6 01            [ 1] 3024 	ld	a, #0x01
      000872 CCr08r76         [ 2] 3025 	jp	00128$
      000875                       3026 00127$:
      000875 4F               [ 1] 3027 	clr	a
      000876                       3028 00128$:
                           000876  3029 	Sstm8s_uart1$UART1_ClearITPendingBit$632 ==.
                                   3030 ; genIfx
      000876 4D               [ 1] 3031 	tnz	a
      000877 27 03            [ 1] 3032 	jreq	00129$
      000879 CCr08r95         [ 2] 3033 	jp	00107$
      00087C                       3034 00129$:
                                   3035 ; genCmpEQorNE
      00087C A3 03 46         [ 2] 3036 	cpw	x, #0x0346
      00087F 26 03            [ 1] 3037 	jrne	00131$
      000881 CCr08r95         [ 2] 3038 	jp	00107$
      000884                       3039 00131$:
                           000884  3040 	Sstm8s_uart1$UART1_ClearITPendingBit$633 ==.
                                   3041 ; skipping generated iCode
                                   3042 ; skipping iCode since result will be rematerialized
                                   3043 ; skipping iCode since result will be rematerialized
                                   3044 ; genIPush
      000884 88               [ 1] 3045 	push	a
                           000885  3046 	Sstm8s_uart1$UART1_ClearITPendingBit$634 ==.
      000885 4B 09            [ 1] 3047 	push	#0x09
                           000887  3048 	Sstm8s_uart1$UART1_ClearITPendingBit$635 ==.
      000887 4B 03            [ 1] 3049 	push	#0x03
                           000889  3050 	Sstm8s_uart1$UART1_ClearITPendingBit$636 ==.
      000889 5F               [ 1] 3051 	clrw	x
      00088A 89               [ 2] 3052 	pushw	x
                           00088B  3053 	Sstm8s_uart1$UART1_ClearITPendingBit$637 ==.
                                   3054 ; genIPush
      00088B 4Br00            [ 1] 3055 	push	#<(___str_0+0)
                           00088D  3056 	Sstm8s_uart1$UART1_ClearITPendingBit$638 ==.
      00088D 4Bs00            [ 1] 3057 	push	#((___str_0+0) >> 8)
                           00088F  3058 	Sstm8s_uart1$UART1_ClearITPendingBit$639 ==.
                                   3059 ; genCall
      00088F CDr00r00         [ 4] 3060 	call	_assert_failed
      000892 5B 06            [ 2] 3061 	addw	sp, #6
                           000894  3062 	Sstm8s_uart1$UART1_ClearITPendingBit$640 ==.
      000894 84               [ 1] 3063 	pop	a
                           000895  3064 	Sstm8s_uart1$UART1_ClearITPendingBit$641 ==.
                                   3065 ; genLabel
      000895                       3066 00107$:
                           000895  3067 	Sstm8s_uart1$UART1_ClearITPendingBit$642 ==.
                                   3068 ;	../SPL/src/stm8s_uart1.c: 780: if (UART1_IT == UART1_IT_RXNE)
                                   3069 ; genAssign
                                   3070 ; genIfx
      000895 4D               [ 1] 3071 	tnz	a
      000896 26 03            [ 1] 3072 	jrne	00133$
      000898 CCr08rA2         [ 2] 3073 	jp	00102$
      00089B                       3074 00133$:
                           00089B  3075 	Sstm8s_uart1$UART1_ClearITPendingBit$643 ==.
                           00089B  3076 	Sstm8s_uart1$UART1_ClearITPendingBit$644 ==.
                                   3077 ;	../SPL/src/stm8s_uart1.c: 782: UART1->SR = (uint8_t)~(UART1_SR_RXNE);
                                   3078 ; genPointerSet
      00089B 35 DF 52 30      [ 1] 3079 	mov	0x5230+0, #0xdf
                           00089F  3080 	Sstm8s_uart1$UART1_ClearITPendingBit$645 ==.
                                   3081 ; genGoto
      00089F CCr08rAA         [ 2] 3082 	jp	00104$
                                   3083 ; genLabel
      0008A2                       3084 00102$:
                           0008A2  3085 	Sstm8s_uart1$UART1_ClearITPendingBit$646 ==.
                           0008A2  3086 	Sstm8s_uart1$UART1_ClearITPendingBit$647 ==.
                                   3087 ;	../SPL/src/stm8s_uart1.c: 787: UART1->CR4 &= (uint8_t)~(UART1_CR4_LBDF);
                                   3088 ; genPointerGet
      0008A2 C6 52 37         [ 1] 3089 	ld	a, 0x5237
                                   3090 ; genAnd
      0008A5 A4 EF            [ 1] 3091 	and	a, #0xef
                                   3092 ; genPointerSet
      0008A7 C7 52 37         [ 1] 3093 	ld	0x5237, a
                           0008AA  3094 	Sstm8s_uart1$UART1_ClearITPendingBit$648 ==.
                                   3095 ; genLabel
      0008AA                       3096 00104$:
                           0008AA  3097 	Sstm8s_uart1$UART1_ClearITPendingBit$649 ==.
                                   3098 ;	../SPL/src/stm8s_uart1.c: 789: }
                                   3099 ; genEndFunction
                           0008AA  3100 	Sstm8s_uart1$UART1_ClearITPendingBit$650 ==.
                           0008AA  3101 	XG$UART1_ClearITPendingBit$0$0 ==.
      0008AA 81               [ 4] 3102 	ret
                           0008AB  3103 	Sstm8s_uart1$UART1_ClearITPendingBit$651 ==.
                                   3104 	.area CODE
                                   3105 	.area CONST
                           000000  3106 Fstm8s_uart1$__str_0$0_0$0 == .
                                   3107 	.area CONST
      000000                       3108 ___str_0:
      000000 2E 2E 2F 53 50 4C 2F  3109 	.ascii "../SPL/src/stm8s_uart1.c"
             73 72 63 2F 73 74 6D
             38 73 5F 75 61 72 74
             31 2E 63
      000018 00                    3110 	.db 0x00
                                   3111 	.area CODE
                                   3112 	.area INITIALIZER
                                   3113 	.area CABS (ABS)
                                   3114 
                                   3115 	.area .debug_line (NOLOAD)
      000000 00 00 06 9B           3116 	.dw	0,Ldebug_line_end-Ldebug_line_start
      000004                       3117 Ldebug_line_start:
      000004 00 02                 3118 	.dw	2
      000006 00 00 00 79           3119 	.dw	0,Ldebug_line_stmt-6-Ldebug_line_start
      00000A 01                    3120 	.db	1
      00000B 01                    3121 	.db	1
      00000C FB                    3122 	.db	-5
      00000D 0F                    3123 	.db	15
      00000E 0A                    3124 	.db	10
      00000F 00                    3125 	.db	0
      000010 01                    3126 	.db	1
      000011 01                    3127 	.db	1
      000012 01                    3128 	.db	1
      000013 01                    3129 	.db	1
      000014 00                    3130 	.db	0
      000015 00                    3131 	.db	0
      000016 00                    3132 	.db	0
      000017 01                    3133 	.db	1
      000018 43 3A 5C 50 72 6F 67  3134 	.ascii "C:\Program Files\SDCC\bin\..\include\stm8"
             72 61 6D 20 46 69 6C
             65 73 5C 53 44 43 43
             08 69 6E 5C 2E 2E 5C
             69 6E 63 6C 75 64 65
             5C 73 74 6D 38
      000040 00                    3135 	.db	0
      000041 43 3A 5C 50 72 6F 67  3136 	.ascii "C:\Program Files\SDCC\bin\..\include"
             72 61 6D 20 46 69 6C
             65 73 5C 53 44 43 43
             08 69 6E 5C 2E 2E 5C
             69 6E 63 6C 75 64 65
      000064 00                    3137 	.db	0
      000065 00                    3138 	.db	0
      000066 2E 2E 2F 53 50 4C 2F  3139 	.ascii "../SPL/src/stm8s_uart1.c"
             73 72 63 2F 73 74 6D
             38 73 5F 75 61 72 74
             31 2E 63
      00007E 00                    3140 	.db	0
      00007F 00                    3141 	.uleb128	0
      000080 00                    3142 	.uleb128	0
      000081 00                    3143 	.uleb128	0
      000082 00                    3144 	.db	0
      000083                       3145 Ldebug_line_stmt:
      000083 00                    3146 	.db	0
      000084 05                    3147 	.uleb128	5
      000085 02                    3148 	.db	2
      000086 00 00r00r00           3149 	.dw	0,(Sstm8s_uart1$UART1_DeInit$0)
      00008A 03                    3150 	.db	3
      00008B 34                    3151 	.sleb128	52
      00008C 01                    3152 	.db	1
      00008D 09                    3153 	.db	9
      00008E 00 00                 3154 	.dw	Sstm8s_uart1$UART1_DeInit$2-Sstm8s_uart1$UART1_DeInit$0
      000090 03                    3155 	.db	3
      000091 04                    3156 	.sleb128	4
      000092 01                    3157 	.db	1
      000093 09                    3158 	.db	9
      000094 00 03                 3159 	.dw	Sstm8s_uart1$UART1_DeInit$3-Sstm8s_uart1$UART1_DeInit$2
      000096 03                    3160 	.db	3
      000097 01                    3161 	.sleb128	1
      000098 01                    3162 	.db	1
      000099 09                    3163 	.db	9
      00009A 00 03                 3164 	.dw	Sstm8s_uart1$UART1_DeInit$4-Sstm8s_uart1$UART1_DeInit$3
      00009C 03                    3165 	.db	3
      00009D 02                    3166 	.sleb128	2
      00009E 01                    3167 	.db	1
      00009F 09                    3168 	.db	9
      0000A0 00 04                 3169 	.dw	Sstm8s_uart1$UART1_DeInit$5-Sstm8s_uart1$UART1_DeInit$4
      0000A2 03                    3170 	.db	3
      0000A3 01                    3171 	.sleb128	1
      0000A4 01                    3172 	.db	1
      0000A5 09                    3173 	.db	9
      0000A6 00 04                 3174 	.dw	Sstm8s_uart1$UART1_DeInit$6-Sstm8s_uart1$UART1_DeInit$5
      0000A8 03                    3175 	.db	3
      0000A9 02                    3176 	.sleb128	2
      0000AA 01                    3177 	.db	1
      0000AB 09                    3178 	.db	9
      0000AC 00 04                 3179 	.dw	Sstm8s_uart1$UART1_DeInit$7-Sstm8s_uart1$UART1_DeInit$6
      0000AE 03                    3180 	.db	3
      0000AF 01                    3181 	.sleb128	1
      0000B0 01                    3182 	.db	1
      0000B1 09                    3183 	.db	9
      0000B2 00 04                 3184 	.dw	Sstm8s_uart1$UART1_DeInit$8-Sstm8s_uart1$UART1_DeInit$7
      0000B4 03                    3185 	.db	3
      0000B5 01                    3186 	.sleb128	1
      0000B6 01                    3187 	.db	1
      0000B7 09                    3188 	.db	9
      0000B8 00 04                 3189 	.dw	Sstm8s_uart1$UART1_DeInit$9-Sstm8s_uart1$UART1_DeInit$8
      0000BA 03                    3190 	.db	3
      0000BB 01                    3191 	.sleb128	1
      0000BC 01                    3192 	.db	1
      0000BD 09                    3193 	.db	9
      0000BE 00 04                 3194 	.dw	Sstm8s_uart1$UART1_DeInit$10-Sstm8s_uart1$UART1_DeInit$9
      0000C0 03                    3195 	.db	3
      0000C1 01                    3196 	.sleb128	1
      0000C2 01                    3197 	.db	1
      0000C3 09                    3198 	.db	9
      0000C4 00 04                 3199 	.dw	Sstm8s_uart1$UART1_DeInit$11-Sstm8s_uart1$UART1_DeInit$10
      0000C6 03                    3200 	.db	3
      0000C7 02                    3201 	.sleb128	2
      0000C8 01                    3202 	.db	1
      0000C9 09                    3203 	.db	9
      0000CA 00 04                 3204 	.dw	Sstm8s_uart1$UART1_DeInit$12-Sstm8s_uart1$UART1_DeInit$11
      0000CC 03                    3205 	.db	3
      0000CD 01                    3206 	.sleb128	1
      0000CE 01                    3207 	.db	1
      0000CF 09                    3208 	.db	9
      0000D0 00 04                 3209 	.dw	Sstm8s_uart1$UART1_DeInit$13-Sstm8s_uart1$UART1_DeInit$12
      0000D2 03                    3210 	.db	3
      0000D3 01                    3211 	.sleb128	1
      0000D4 01                    3212 	.db	1
      0000D5 09                    3213 	.db	9
      0000D6 00 01                 3214 	.dw	1+Sstm8s_uart1$UART1_DeInit$14-Sstm8s_uart1$UART1_DeInit$13
      0000D8 00                    3215 	.db	0
      0000D9 01                    3216 	.uleb128	1
      0000DA 01                    3217 	.db	1
      0000DB 00                    3218 	.db	0
      0000DC 05                    3219 	.uleb128	5
      0000DD 02                    3220 	.db	2
      0000DE 00 00r00r2B           3221 	.dw	0,(Sstm8s_uart1$UART1_Init$16)
      0000E2 03                    3222 	.db	3
      0000E3 D9 00                 3223 	.sleb128	89
      0000E5 01                    3224 	.db	1
      0000E6 09                    3225 	.db	9
      0000E7 00 02                 3226 	.dw	Sstm8s_uart1$UART1_Init$19-Sstm8s_uart1$UART1_Init$16
      0000E9 03                    3227 	.db	3
      0000EA 07                    3228 	.sleb128	7
      0000EB 01                    3229 	.db	1
      0000EC 09                    3230 	.db	9
      0000ED 00 20                 3231 	.dw	Sstm8s_uart1$UART1_Init$26-Sstm8s_uart1$UART1_Init$19
      0000EF 03                    3232 	.db	3
      0000F0 01                    3233 	.sleb128	1
      0000F1 01                    3234 	.db	1
      0000F2 09                    3235 	.db	9
      0000F3 00 1F                 3236 	.dw	Sstm8s_uart1$UART1_Init$34-Sstm8s_uart1$UART1_Init$26
      0000F5 03                    3237 	.db	3
      0000F6 01                    3238 	.sleb128	1
      0000F7 01                    3239 	.db	1
      0000F8 09                    3240 	.db	9
      0000F9 00 31                 3241 	.dw	Sstm8s_uart1$UART1_Init$44-Sstm8s_uart1$UART1_Init$34
      0000FB 03                    3242 	.db	3
      0000FC 01                    3243 	.sleb128	1
      0000FD 01                    3244 	.db	1
      0000FE 09                    3245 	.db	9
      0000FF 00 28                 3246 	.dw	Sstm8s_uart1$UART1_Init$53-Sstm8s_uart1$UART1_Init$44
      000101 03                    3247 	.db	3
      000102 01                    3248 	.sleb128	1
      000103 01                    3249 	.db	1
      000104 09                    3250 	.db	9
      000105 00 66                 3251 	.dw	Sstm8s_uart1$UART1_Init$68-Sstm8s_uart1$UART1_Init$53
      000107 03                    3252 	.db	3
      000108 01                    3253 	.sleb128	1
      000109 01                    3254 	.db	1
      00010A 09                    3255 	.db	9
      00010B 00 3E                 3256 	.dw	Sstm8s_uart1$UART1_Init$79-Sstm8s_uart1$UART1_Init$68
      00010D 03                    3257 	.db	3
      00010E 03                    3258 	.sleb128	3
      00010F 01                    3259 	.db	1
      000110 09                    3260 	.db	9
      000111 00 08                 3261 	.dw	Sstm8s_uart1$UART1_Init$80-Sstm8s_uart1$UART1_Init$79
      000113 03                    3262 	.db	3
      000114 03                    3263 	.sleb128	3
      000115 01                    3264 	.db	1
      000116 09                    3265 	.db	9
      000117 00 08                 3266 	.dw	Sstm8s_uart1$UART1_Init$81-Sstm8s_uart1$UART1_Init$80
      000119 03                    3267 	.db	3
      00011A 03                    3268 	.sleb128	3
      00011B 01                    3269 	.db	1
      00011C 09                    3270 	.db	9
      00011D 00 08                 3271 	.dw	Sstm8s_uart1$UART1_Init$82-Sstm8s_uart1$UART1_Init$81
      00011F 03                    3272 	.db	3
      000120 02                    3273 	.sleb128	2
      000121 01                    3274 	.db	1
      000122 09                    3275 	.db	9
      000123 00 08                 3276 	.dw	Sstm8s_uart1$UART1_Init$83-Sstm8s_uart1$UART1_Init$82
      000125 03                    3277 	.db	3
      000126 03                    3278 	.sleb128	3
      000127 01                    3279 	.db	1
      000128 09                    3280 	.db	9
      000129 00 08                 3281 	.dw	Sstm8s_uart1$UART1_Init$84-Sstm8s_uart1$UART1_Init$83
      00012B 03                    3282 	.db	3
      00012C 02                    3283 	.sleb128	2
      00012D 01                    3284 	.db	1
      00012E 09                    3285 	.db	9
      00012F 00 08                 3286 	.dw	Sstm8s_uart1$UART1_Init$85-Sstm8s_uart1$UART1_Init$84
      000131 03                    3287 	.db	3
      000132 03                    3288 	.sleb128	3
      000133 01                    3289 	.db	1
      000134 09                    3290 	.db	9
      000135 00 07                 3291 	.dw	Sstm8s_uart1$UART1_Init$86-Sstm8s_uart1$UART1_Init$85
      000137 03                    3292 	.db	3
      000138 02                    3293 	.sleb128	2
      000139 01                    3294 	.db	1
      00013A 09                    3295 	.db	9
      00013B 00 08                 3296 	.dw	Sstm8s_uart1$UART1_Init$87-Sstm8s_uart1$UART1_Init$86
      00013D 03                    3297 	.db	3
      00013E 02                    3298 	.sleb128	2
      00013F 01                    3299 	.db	1
      000140 09                    3300 	.db	9
      000141 00 08                 3301 	.dw	Sstm8s_uart1$UART1_Init$88-Sstm8s_uart1$UART1_Init$87
      000143 03                    3302 	.db	3
      000144 03                    3303 	.sleb128	3
      000145 01                    3304 	.db	1
      000146 09                    3305 	.db	9
      000147 00 2B                 3306 	.dw	Sstm8s_uart1$UART1_Init$94-Sstm8s_uart1$UART1_Init$88
      000149 03                    3307 	.db	3
      00014A 01                    3308 	.sleb128	1
      00014B 01                    3309 	.db	1
      00014C 09                    3310 	.db	9
      00014D 00 2B                 3311 	.dw	Sstm8s_uart1$UART1_Init$106-Sstm8s_uart1$UART1_Init$94
      00014F 03                    3312 	.db	3
      000150 02                    3313 	.sleb128	2
      000151 01                    3314 	.db	1
      000152 09                    3315 	.db	9
      000153 00 4C                 3316 	.dw	Sstm8s_uart1$UART1_Init$124-Sstm8s_uart1$UART1_Init$106
      000155 03                    3317 	.db	3
      000156 02                    3318 	.sleb128	2
      000157 01                    3319 	.db	1
      000158 09                    3320 	.db	9
      000159 00 14                 3321 	.dw	Sstm8s_uart1$UART1_Init$125-Sstm8s_uart1$UART1_Init$124
      00015B 03                    3322 	.db	3
      00015C 02                    3323 	.sleb128	2
      00015D 01                    3324 	.db	1
      00015E 09                    3325 	.db	9
      00015F 00 0C                 3326 	.dw	Sstm8s_uart1$UART1_Init$126-Sstm8s_uart1$UART1_Init$125
      000161 03                    3327 	.db	3
      000162 03                    3328 	.sleb128	3
      000163 01                    3329 	.db	1
      000164 09                    3330 	.db	9
      000165 00 08                 3331 	.dw	Sstm8s_uart1$UART1_Init$127-Sstm8s_uart1$UART1_Init$126
      000167 03                    3332 	.db	3
      000168 02                    3333 	.sleb128	2
      000169 01                    3334 	.db	1
      00016A 09                    3335 	.db	9
      00016B 00 08                 3336 	.dw	Sstm8s_uart1$UART1_Init$128-Sstm8s_uart1$UART1_Init$127
      00016D 03                    3337 	.db	3
      00016E 02                    3338 	.sleb128	2
      00016F 01                    3339 	.db	1
      000170 09                    3340 	.db	9
      000171 00 0E                 3341 	.dw	Sstm8s_uart1$UART1_Init$129-Sstm8s_uart1$UART1_Init$128
      000173 03                    3342 	.db	3
      000174 7C                    3343 	.sleb128	-4
      000175 01                    3344 	.db	1
      000176 09                    3345 	.db	9
      000177 00 03                 3346 	.dw	Sstm8s_uart1$UART1_Init$130-Sstm8s_uart1$UART1_Init$129
      000179 03                    3347 	.db	3
      00017A 07                    3348 	.sleb128	7
      00017B 01                    3349 	.db	1
      00017C 09                    3350 	.db	9
      00017D 00 0B                 3351 	.dw	Sstm8s_uart1$UART1_Init$134-Sstm8s_uart1$UART1_Init$130
      00017F 03                    3352 	.db	3
      000180 03                    3353 	.sleb128	3
      000181 01                    3354 	.db	1
      000182 09                    3355 	.db	9
      000183 00 08                 3356 	.dw	Sstm8s_uart1$UART1_Init$137-Sstm8s_uart1$UART1_Init$134
      000185 03                    3357 	.db	3
      000186 05                    3358 	.sleb128	5
      000187 01                    3359 	.db	1
      000188 09                    3360 	.db	9
      000189 00 05                 3361 	.dw	Sstm8s_uart1$UART1_Init$139-Sstm8s_uart1$UART1_Init$137
      00018B 03                    3362 	.db	3
      00018C 71                    3363 	.sleb128	-15
      00018D 01                    3364 	.db	1
      00018E 09                    3365 	.db	9
      00018F 00 03                 3366 	.dw	Sstm8s_uart1$UART1_Init$140-Sstm8s_uart1$UART1_Init$139
      000191 03                    3367 	.db	3
      000192 11                    3368 	.sleb128	17
      000193 01                    3369 	.db	1
      000194 09                    3370 	.db	9
      000195 00 0B                 3371 	.dw	Sstm8s_uart1$UART1_Init$144-Sstm8s_uart1$UART1_Init$140
      000197 03                    3372 	.db	3
      000198 03                    3373 	.sleb128	3
      000199 01                    3374 	.db	1
      00019A 09                    3375 	.db	9
      00019B 00 08                 3376 	.dw	Sstm8s_uart1$UART1_Init$147-Sstm8s_uart1$UART1_Init$144
      00019D 03                    3377 	.db	3
      00019E 05                    3378 	.sleb128	5
      00019F 01                    3379 	.db	1
      0001A0 09                    3380 	.db	9
      0001A1 00 05                 3381 	.dw	Sstm8s_uart1$UART1_Init$149-Sstm8s_uart1$UART1_Init$147
      0001A3 03                    3382 	.db	3
      0001A4 4C                    3383 	.sleb128	-52
      0001A5 01                    3384 	.db	1
      0001A6 09                    3385 	.db	9
      0001A7 00 03                 3386 	.dw	Sstm8s_uart1$UART1_Init$150-Sstm8s_uart1$UART1_Init$149
      0001A9 03                    3387 	.db	3
      0001AA 38                    3388 	.sleb128	56
      0001AB 01                    3389 	.db	1
      0001AC 09                    3390 	.db	9
      0001AD 00 07                 3391 	.dw	Sstm8s_uart1$UART1_Init$152-Sstm8s_uart1$UART1_Init$150
      0001AF 03                    3392 	.db	3
      0001B0 03                    3393 	.sleb128	3
      0001B1 01                    3394 	.db	1
      0001B2 09                    3395 	.db	9
      0001B3 00 08                 3396 	.dw	Sstm8s_uart1$UART1_Init$155-Sstm8s_uart1$UART1_Init$152
      0001B5 03                    3397 	.db	3
      0001B6 04                    3398 	.sleb128	4
      0001B7 01                    3399 	.db	1
      0001B8 09                    3400 	.db	9
      0001B9 00 0D                 3401 	.dw	Sstm8s_uart1$UART1_Init$159-Sstm8s_uart1$UART1_Init$155
      0001BB 03                    3402 	.db	3
      0001BC 02                    3403 	.sleb128	2
      0001BD 01                    3404 	.db	1
      0001BE 09                    3405 	.db	9
      0001BF 00 03                 3406 	.dw	1+Sstm8s_uart1$UART1_Init$161-Sstm8s_uart1$UART1_Init$159
      0001C1 00                    3407 	.db	0
      0001C2 01                    3408 	.uleb128	1
      0001C3 01                    3409 	.db	1
      0001C4 00                    3410 	.db	0
      0001C5 05                    3411 	.uleb128	5
      0001C6 02                    3412 	.db	2
      0001C7 00 00r02rE8           3413 	.dw	0,(Sstm8s_uart1$UART1_Cmd$163)
      0001CB 03                    3414 	.db	3
      0001CC B7 01                 3415 	.sleb128	183
      0001CE 01                    3416 	.db	1
      0001CF 09                    3417 	.db	9
      0001D0 00 00                 3418 	.dw	Sstm8s_uart1$UART1_Cmd$165-Sstm8s_uart1$UART1_Cmd$163
      0001D2 03                    3419 	.db	3
      0001D3 05                    3420 	.sleb128	5
      0001D4 01                    3421 	.db	1
      0001D5 09                    3422 	.db	9
      0001D6 00 03                 3423 	.dw	Sstm8s_uart1$UART1_Cmd$166-Sstm8s_uart1$UART1_Cmd$165
      0001D8 03                    3424 	.db	3
      0001D9 7D                    3425 	.sleb128	-3
      0001DA 01                    3426 	.db	1
      0001DB 09                    3427 	.db	9
      0001DC 00 07                 3428 	.dw	Sstm8s_uart1$UART1_Cmd$168-Sstm8s_uart1$UART1_Cmd$166
      0001DE 03                    3429 	.db	3
      0001DF 03                    3430 	.sleb128	3
      0001E0 01                    3431 	.db	1
      0001E1 09                    3432 	.db	9
      0001E2 00 08                 3433 	.dw	Sstm8s_uart1$UART1_Cmd$171-Sstm8s_uart1$UART1_Cmd$168
      0001E4 03                    3434 	.db	3
      0001E5 05                    3435 	.sleb128	5
      0001E6 01                    3436 	.db	1
      0001E7 09                    3437 	.db	9
      0001E8 00 05                 3438 	.dw	Sstm8s_uart1$UART1_Cmd$173-Sstm8s_uart1$UART1_Cmd$171
      0001EA 03                    3439 	.db	3
      0001EB 02                    3440 	.sleb128	2
      0001EC 01                    3441 	.db	1
      0001ED 09                    3442 	.db	9
      0001EE 00 01                 3443 	.dw	1+Sstm8s_uart1$UART1_Cmd$174-Sstm8s_uart1$UART1_Cmd$173
      0001F0 00                    3444 	.db	0
      0001F1 01                    3445 	.uleb128	1
      0001F2 01                    3446 	.db	1
      0001F3 00                    3447 	.db	0
      0001F4 05                    3448 	.uleb128	5
      0001F5 02                    3449 	.db	2
      0001F6 00 00r03r00           3450 	.dw	0,(Sstm8s_uart1$UART1_ITConfig$176)
      0001FA 03                    3451 	.db	3
      0001FB D2 01                 3452 	.sleb128	210
      0001FD 01                    3453 	.db	1
      0001FE 09                    3454 	.db	9
      0001FF 00 01                 3455 	.dw	Sstm8s_uart1$UART1_ITConfig$179-Sstm8s_uart1$UART1_ITConfig$176
      000201 03                    3456 	.db	3
      000202 05                    3457 	.sleb128	5
      000203 01                    3458 	.db	1
      000204 09                    3459 	.db	9
      000205 00 45                 3460 	.dw	Sstm8s_uart1$UART1_ITConfig$195-Sstm8s_uart1$UART1_ITConfig$179
      000207 03                    3461 	.db	3
      000208 01                    3462 	.sleb128	1
      000209 01                    3463 	.db	1
      00020A 09                    3464 	.db	9
      00020B 00 22                 3465 	.dw	Sstm8s_uart1$UART1_ITConfig$206-Sstm8s_uart1$UART1_ITConfig$195
      00020D 03                    3466 	.db	3
      00020E 03                    3467 	.sleb128	3
      00020F 01                    3468 	.db	1
      000210 09                    3469 	.db	9
      000211 00 01                 3470 	.dw	Sstm8s_uart1$UART1_ITConfig$207-Sstm8s_uart1$UART1_ITConfig$206
      000213 03                    3471 	.db	3
      000214 02                    3472 	.sleb128	2
      000215 01                    3473 	.db	1
      000216 09                    3474 	.db	9
      000217 00 12                 3475 	.dw	Sstm8s_uart1$UART1_ITConfig$210-Sstm8s_uart1$UART1_ITConfig$207
      000219 03                    3476 	.db	3
      00021A 05                    3477 	.sleb128	5
      00021B 01                    3478 	.db	1
      00021C 09                    3479 	.db	9
      00021D 00 0D                 3480 	.dw	Sstm8s_uart1$UART1_ITConfig$212-Sstm8s_uart1$UART1_ITConfig$210
      00021F 03                    3481 	.db	3
      000220 04                    3482 	.sleb128	4
      000221 01                    3483 	.db	1
      000222 09                    3484 	.db	9
      000223 00 0B                 3485 	.dw	Sstm8s_uart1$UART1_ITConfig$214-Sstm8s_uart1$UART1_ITConfig$212
      000225 03                    3486 	.db	3
      000226 79                    3487 	.sleb128	-7
      000227 01                    3488 	.db	1
      000228 09                    3489 	.db	9
      000229 00 07                 3490 	.dw	Sstm8s_uart1$UART1_ITConfig$216-Sstm8s_uart1$UART1_ITConfig$214
      00022B 03                    3491 	.db	3
      00022C 03                    3492 	.sleb128	3
      00022D 01                    3493 	.db	1
      00022E 09                    3494 	.db	9
      00022F 00 07                 3495 	.dw	Sstm8s_uart1$UART1_ITConfig$218-Sstm8s_uart1$UART1_ITConfig$216
      000231 03                    3496 	.db	3
      000232 02                    3497 	.sleb128	2
      000233 01                    3498 	.db	1
      000234 09                    3499 	.db	9
      000235 00 0B                 3500 	.dw	Sstm8s_uart1$UART1_ITConfig$220-Sstm8s_uart1$UART1_ITConfig$218
      000237 03                    3501 	.db	3
      000238 02                    3502 	.sleb128	2
      000239 01                    3503 	.db	1
      00023A 09                    3504 	.db	9
      00023B 00 06                 3505 	.dw	Sstm8s_uart1$UART1_ITConfig$222-Sstm8s_uart1$UART1_ITConfig$220
      00023D 03                    3506 	.db	3
      00023E 02                    3507 	.sleb128	2
      00023F 01                    3508 	.db	1
      000240 09                    3509 	.db	9
      000241 00 0B                 3510 	.dw	Sstm8s_uart1$UART1_ITConfig$225-Sstm8s_uart1$UART1_ITConfig$222
      000243 03                    3511 	.db	3
      000244 04                    3512 	.sleb128	4
      000245 01                    3513 	.db	1
      000246 09                    3514 	.db	9
      000247 00 0B                 3515 	.dw	Sstm8s_uart1$UART1_ITConfig$227-Sstm8s_uart1$UART1_ITConfig$225
      000249 03                    3516 	.db	3
      00024A 08                    3517 	.sleb128	8
      00024B 01                    3518 	.db	1
      00024C 09                    3519 	.db	9
      00024D 00 04                 3520 	.dw	Sstm8s_uart1$UART1_ITConfig$231-Sstm8s_uart1$UART1_ITConfig$227
      00024F 03                    3521 	.db	3
      000250 7E                    3522 	.sleb128	-2
      000251 01                    3523 	.db	1
      000252 09                    3524 	.db	9
      000253 00 07                 3525 	.dw	Sstm8s_uart1$UART1_ITConfig$233-Sstm8s_uart1$UART1_ITConfig$231
      000255 03                    3526 	.db	3
      000256 02                    3527 	.sleb128	2
      000257 01                    3528 	.db	1
      000258 09                    3529 	.db	9
      000259 00 0B                 3530 	.dw	Sstm8s_uart1$UART1_ITConfig$235-Sstm8s_uart1$UART1_ITConfig$233
      00025B 03                    3531 	.db	3
      00025C 02                    3532 	.sleb128	2
      00025D 01                    3533 	.db	1
      00025E 09                    3534 	.db	9
      00025F 00 06                 3535 	.dw	Sstm8s_uart1$UART1_ITConfig$237-Sstm8s_uart1$UART1_ITConfig$235
      000261 03                    3536 	.db	3
      000262 02                    3537 	.sleb128	2
      000263 01                    3538 	.db	1
      000264 09                    3539 	.db	9
      000265 00 0B                 3540 	.dw	Sstm8s_uart1$UART1_ITConfig$240-Sstm8s_uart1$UART1_ITConfig$237
      000267 03                    3541 	.db	3
      000268 04                    3542 	.sleb128	4
      000269 01                    3543 	.db	1
      00026A 09                    3544 	.db	9
      00026B 00 08                 3545 	.dw	Sstm8s_uart1$UART1_ITConfig$242-Sstm8s_uart1$UART1_ITConfig$240
      00026D 03                    3546 	.db	3
      00026E 04                    3547 	.sleb128	4
      00026F 01                    3548 	.db	1
      000270 09                    3549 	.db	9
      000271 00 02                 3550 	.dw	1+Sstm8s_uart1$UART1_ITConfig$244-Sstm8s_uart1$UART1_ITConfig$242
      000273 00                    3551 	.db	0
      000274 01                    3552 	.uleb128	1
      000275 01                    3553 	.db	1
      000276 00                    3554 	.db	0
      000277 05                    3555 	.uleb128	5
      000278 02                    3556 	.db	2
      000279 00 00r03rF9           3557 	.dw	0,(Sstm8s_uart1$UART1_HalfDuplexCmd$246)
      00027D 03                    3558 	.db	3
      00027E 88 02                 3559 	.sleb128	264
      000280 01                    3560 	.db	1
      000281 09                    3561 	.db	9
      000282 00 00                 3562 	.dw	Sstm8s_uart1$UART1_HalfDuplexCmd$248-Sstm8s_uart1$UART1_HalfDuplexCmd$246
      000284 03                    3563 	.db	3
      000285 02                    3564 	.sleb128	2
      000286 01                    3565 	.db	1
      000287 09                    3566 	.db	9
      000288 00 1E                 3567 	.dw	Sstm8s_uart1$UART1_HalfDuplexCmd$256-Sstm8s_uart1$UART1_HalfDuplexCmd$248
      00028A 03                    3568 	.db	3
      00028B 04                    3569 	.sleb128	4
      00028C 01                    3570 	.db	1
      00028D 09                    3571 	.db	9
      00028E 00 03                 3572 	.dw	Sstm8s_uart1$UART1_HalfDuplexCmd$257-Sstm8s_uart1$UART1_HalfDuplexCmd$256
      000290 03                    3573 	.db	3
      000291 7E                    3574 	.sleb128	-2
      000292 01                    3575 	.db	1
      000293 09                    3576 	.db	9
      000294 00 07                 3577 	.dw	Sstm8s_uart1$UART1_HalfDuplexCmd$259-Sstm8s_uart1$UART1_HalfDuplexCmd$257
      000296 03                    3578 	.db	3
      000297 02                    3579 	.sleb128	2
      000298 01                    3580 	.db	1
      000299 09                    3581 	.db	9
      00029A 00 08                 3582 	.dw	Sstm8s_uart1$UART1_HalfDuplexCmd$262-Sstm8s_uart1$UART1_HalfDuplexCmd$259
      00029C 03                    3583 	.db	3
      00029D 04                    3584 	.sleb128	4
      00029E 01                    3585 	.db	1
      00029F 09                    3586 	.db	9
      0002A0 00 05                 3587 	.dw	Sstm8s_uart1$UART1_HalfDuplexCmd$264-Sstm8s_uart1$UART1_HalfDuplexCmd$262
      0002A2 03                    3588 	.db	3
      0002A3 02                    3589 	.sleb128	2
      0002A4 01                    3590 	.db	1
      0002A5 09                    3591 	.db	9
      0002A6 00 01                 3592 	.dw	1+Sstm8s_uart1$UART1_HalfDuplexCmd$265-Sstm8s_uart1$UART1_HalfDuplexCmd$264
      0002A8 00                    3593 	.db	0
      0002A9 01                    3594 	.uleb128	1
      0002AA 01                    3595 	.db	1
      0002AB 00                    3596 	.db	0
      0002AC 05                    3597 	.uleb128	5
      0002AD 02                    3598 	.db	2
      0002AE 00 00r04r2F           3599 	.dw	0,(Sstm8s_uart1$UART1_IrDAConfig$267)
      0002B2 03                    3600 	.db	3
      0002B3 9C 02                 3601 	.sleb128	284
      0002B5 01                    3602 	.db	1
      0002B6 09                    3603 	.db	9
      0002B7 00 00                 3604 	.dw	Sstm8s_uart1$UART1_IrDAConfig$269-Sstm8s_uart1$UART1_IrDAConfig$267
      0002B9 03                    3605 	.db	3
      0002BA 02                    3606 	.sleb128	2
      0002BB 01                    3607 	.db	1
      0002BC 09                    3608 	.db	9
      0002BD 00 1E                 3609 	.dw	Sstm8s_uart1$UART1_IrDAConfig$277-Sstm8s_uart1$UART1_IrDAConfig$269
      0002BF 03                    3610 	.db	3
      0002C0 04                    3611 	.sleb128	4
      0002C1 01                    3612 	.db	1
      0002C2 09                    3613 	.db	9
      0002C3 00 03                 3614 	.dw	Sstm8s_uart1$UART1_IrDAConfig$278-Sstm8s_uart1$UART1_IrDAConfig$277
      0002C5 03                    3615 	.db	3
      0002C6 7E                    3616 	.sleb128	-2
      0002C7 01                    3617 	.db	1
      0002C8 09                    3618 	.db	9
      0002C9 00 07                 3619 	.dw	Sstm8s_uart1$UART1_IrDAConfig$280-Sstm8s_uart1$UART1_IrDAConfig$278
      0002CB 03                    3620 	.db	3
      0002CC 02                    3621 	.sleb128	2
      0002CD 01                    3622 	.db	1
      0002CE 09                    3623 	.db	9
      0002CF 00 08                 3624 	.dw	Sstm8s_uart1$UART1_IrDAConfig$283-Sstm8s_uart1$UART1_IrDAConfig$280
      0002D1 03                    3625 	.db	3
      0002D2 04                    3626 	.sleb128	4
      0002D3 01                    3627 	.db	1
      0002D4 09                    3628 	.db	9
      0002D5 00 05                 3629 	.dw	Sstm8s_uart1$UART1_IrDAConfig$285-Sstm8s_uart1$UART1_IrDAConfig$283
      0002D7 03                    3630 	.db	3
      0002D8 02                    3631 	.sleb128	2
      0002D9 01                    3632 	.db	1
      0002DA 09                    3633 	.db	9
      0002DB 00 01                 3634 	.dw	1+Sstm8s_uart1$UART1_IrDAConfig$286-Sstm8s_uart1$UART1_IrDAConfig$285
      0002DD 00                    3635 	.db	0
      0002DE 01                    3636 	.uleb128	1
      0002DF 01                    3637 	.db	1
      0002E0 00                    3638 	.db	0
      0002E1 05                    3639 	.uleb128	5
      0002E2 02                    3640 	.db	2
      0002E3 00 00r04r65           3641 	.dw	0,(Sstm8s_uart1$UART1_IrDACmd$288)
      0002E7 03                    3642 	.db	3
      0002E8 B0 02                 3643 	.sleb128	304
      0002EA 01                    3644 	.db	1
      0002EB 09                    3645 	.db	9
      0002EC 00 00                 3646 	.dw	Sstm8s_uart1$UART1_IrDACmd$290-Sstm8s_uart1$UART1_IrDACmd$288
      0002EE 03                    3647 	.db	3
      0002EF 03                    3648 	.sleb128	3
      0002F0 01                    3649 	.db	1
      0002F1 09                    3650 	.db	9
      0002F2 00 1E                 3651 	.dw	Sstm8s_uart1$UART1_IrDACmd$298-Sstm8s_uart1$UART1_IrDACmd$290
      0002F4 03                    3652 	.db	3
      0002F5 05                    3653 	.sleb128	5
      0002F6 01                    3654 	.db	1
      0002F7 09                    3655 	.db	9
      0002F8 00 03                 3656 	.dw	Sstm8s_uart1$UART1_IrDACmd$299-Sstm8s_uart1$UART1_IrDACmd$298
      0002FA 03                    3657 	.db	3
      0002FB 7D                    3658 	.sleb128	-3
      0002FC 01                    3659 	.db	1
      0002FD 09                    3660 	.db	9
      0002FE 00 07                 3661 	.dw	Sstm8s_uart1$UART1_IrDACmd$301-Sstm8s_uart1$UART1_IrDACmd$299
      000300 03                    3662 	.db	3
      000301 03                    3663 	.sleb128	3
      000302 01                    3664 	.db	1
      000303 09                    3665 	.db	9
      000304 00 08                 3666 	.dw	Sstm8s_uart1$UART1_IrDACmd$304-Sstm8s_uart1$UART1_IrDACmd$301
      000306 03                    3667 	.db	3
      000307 05                    3668 	.sleb128	5
      000308 01                    3669 	.db	1
      000309 09                    3670 	.db	9
      00030A 00 05                 3671 	.dw	Sstm8s_uart1$UART1_IrDACmd$306-Sstm8s_uart1$UART1_IrDACmd$304
      00030C 03                    3672 	.db	3
      00030D 02                    3673 	.sleb128	2
      00030E 01                    3674 	.db	1
      00030F 09                    3675 	.db	9
      000310 00 01                 3676 	.dw	1+Sstm8s_uart1$UART1_IrDACmd$307-Sstm8s_uart1$UART1_IrDACmd$306
      000312 00                    3677 	.db	0
      000313 01                    3678 	.uleb128	1
      000314 01                    3679 	.db	1
      000315 00                    3680 	.db	0
      000316 05                    3681 	.uleb128	5
      000317 02                    3682 	.db	2
      000318 00 00r04r9B           3683 	.dw	0,(Sstm8s_uart1$UART1_LINBreakDetectionConfig$309)
      00031C 03                    3684 	.db	3
      00031D C8 02                 3685 	.sleb128	328
      00031F 01                    3686 	.db	1
      000320 09                    3687 	.db	9
      000321 00 00                 3688 	.dw	Sstm8s_uart1$UART1_LINBreakDetectionConfig$311-Sstm8s_uart1$UART1_LINBreakDetectionConfig$309
      000323 03                    3689 	.db	3
      000324 02                    3690 	.sleb128	2
      000325 01                    3691 	.db	1
      000326 09                    3692 	.db	9
      000327 00 1E                 3693 	.dw	Sstm8s_uart1$UART1_LINBreakDetectionConfig$319-Sstm8s_uart1$UART1_LINBreakDetectionConfig$311
      000329 03                    3694 	.db	3
      00032A 04                    3695 	.sleb128	4
      00032B 01                    3696 	.db	1
      00032C 09                    3697 	.db	9
      00032D 00 03                 3698 	.dw	Sstm8s_uart1$UART1_LINBreakDetectionConfig$320-Sstm8s_uart1$UART1_LINBreakDetectionConfig$319
      00032F 03                    3699 	.db	3
      000330 7E                    3700 	.sleb128	-2
      000331 01                    3701 	.db	1
      000332 09                    3702 	.db	9
      000333 00 07                 3703 	.dw	Sstm8s_uart1$UART1_LINBreakDetectionConfig$322-Sstm8s_uart1$UART1_LINBreakDetectionConfig$320
      000335 03                    3704 	.db	3
      000336 02                    3705 	.sleb128	2
      000337 01                    3706 	.db	1
      000338 09                    3707 	.db	9
      000339 00 08                 3708 	.dw	Sstm8s_uart1$UART1_LINBreakDetectionConfig$325-Sstm8s_uart1$UART1_LINBreakDetectionConfig$322
      00033B 03                    3709 	.db	3
      00033C 04                    3710 	.sleb128	4
      00033D 01                    3711 	.db	1
      00033E 09                    3712 	.db	9
      00033F 00 05                 3713 	.dw	Sstm8s_uart1$UART1_LINBreakDetectionConfig$327-Sstm8s_uart1$UART1_LINBreakDetectionConfig$325
      000341 03                    3714 	.db	3
      000342 02                    3715 	.sleb128	2
      000343 01                    3716 	.db	1
      000344 09                    3717 	.db	9
      000345 00 01                 3718 	.dw	1+Sstm8s_uart1$UART1_LINBreakDetectionConfig$328-Sstm8s_uart1$UART1_LINBreakDetectionConfig$327
      000347 00                    3719 	.db	0
      000348 01                    3720 	.uleb128	1
      000349 01                    3721 	.db	1
      00034A 00                    3722 	.db	0
      00034B 05                    3723 	.uleb128	5
      00034C 02                    3724 	.db	2
      00034D 00 00r04rD1           3725 	.dw	0,(Sstm8s_uart1$UART1_LINCmd$330)
      000351 03                    3726 	.db	3
      000352 DC 02                 3727 	.sleb128	348
      000354 01                    3728 	.db	1
      000355 09                    3729 	.db	9
      000356 00 00                 3730 	.dw	Sstm8s_uart1$UART1_LINCmd$332-Sstm8s_uart1$UART1_LINCmd$330
      000358 03                    3731 	.db	3
      000359 02                    3732 	.sleb128	2
      00035A 01                    3733 	.db	1
      00035B 09                    3734 	.db	9
      00035C 00 1E                 3735 	.dw	Sstm8s_uart1$UART1_LINCmd$340-Sstm8s_uart1$UART1_LINCmd$332
      00035E 03                    3736 	.db	3
      00035F 05                    3737 	.sleb128	5
      000360 01                    3738 	.db	1
      000361 09                    3739 	.db	9
      000362 00 03                 3740 	.dw	Sstm8s_uart1$UART1_LINCmd$341-Sstm8s_uart1$UART1_LINCmd$340
      000364 03                    3741 	.db	3
      000365 7D                    3742 	.sleb128	-3
      000366 01                    3743 	.db	1
      000367 09                    3744 	.db	9
      000368 00 07                 3745 	.dw	Sstm8s_uart1$UART1_LINCmd$343-Sstm8s_uart1$UART1_LINCmd$341
      00036A 03                    3746 	.db	3
      00036B 03                    3747 	.sleb128	3
      00036C 01                    3748 	.db	1
      00036D 09                    3749 	.db	9
      00036E 00 08                 3750 	.dw	Sstm8s_uart1$UART1_LINCmd$346-Sstm8s_uart1$UART1_LINCmd$343
      000370 03                    3751 	.db	3
      000371 05                    3752 	.sleb128	5
      000372 01                    3753 	.db	1
      000373 09                    3754 	.db	9
      000374 00 05                 3755 	.dw	Sstm8s_uart1$UART1_LINCmd$348-Sstm8s_uart1$UART1_LINCmd$346
      000376 03                    3756 	.db	3
      000377 02                    3757 	.sleb128	2
      000378 01                    3758 	.db	1
      000379 09                    3759 	.db	9
      00037A 00 01                 3760 	.dw	1+Sstm8s_uart1$UART1_LINCmd$349-Sstm8s_uart1$UART1_LINCmd$348
      00037C 00                    3761 	.db	0
      00037D 01                    3762 	.uleb128	1
      00037E 01                    3763 	.db	1
      00037F 00                    3764 	.db	0
      000380 05                    3765 	.uleb128	5
      000381 02                    3766 	.db	2
      000382 00 00r05r07           3767 	.dw	0,(Sstm8s_uart1$UART1_SmartCardCmd$351)
      000386 03                    3768 	.db	3
      000387 F2 02                 3769 	.sleb128	370
      000389 01                    3770 	.db	1
      00038A 09                    3771 	.db	9
      00038B 00 00                 3772 	.dw	Sstm8s_uart1$UART1_SmartCardCmd$353-Sstm8s_uart1$UART1_SmartCardCmd$351
      00038D 03                    3773 	.db	3
      00038E 02                    3774 	.sleb128	2
      00038F 01                    3775 	.db	1
      000390 09                    3776 	.db	9
      000391 00 1E                 3777 	.dw	Sstm8s_uart1$UART1_SmartCardCmd$361-Sstm8s_uart1$UART1_SmartCardCmd$353
      000393 03                    3778 	.db	3
      000394 05                    3779 	.sleb128	5
      000395 01                    3780 	.db	1
      000396 09                    3781 	.db	9
      000397 00 03                 3782 	.dw	Sstm8s_uart1$UART1_SmartCardCmd$362-Sstm8s_uart1$UART1_SmartCardCmd$361
      000399 03                    3783 	.db	3
      00039A 7D                    3784 	.sleb128	-3
      00039B 01                    3785 	.db	1
      00039C 09                    3786 	.db	9
      00039D 00 07                 3787 	.dw	Sstm8s_uart1$UART1_SmartCardCmd$364-Sstm8s_uart1$UART1_SmartCardCmd$362
      00039F 03                    3788 	.db	3
      0003A0 03                    3789 	.sleb128	3
      0003A1 01                    3790 	.db	1
      0003A2 09                    3791 	.db	9
      0003A3 00 08                 3792 	.dw	Sstm8s_uart1$UART1_SmartCardCmd$367-Sstm8s_uart1$UART1_SmartCardCmd$364
      0003A5 03                    3793 	.db	3
      0003A6 05                    3794 	.sleb128	5
      0003A7 01                    3795 	.db	1
      0003A8 09                    3796 	.db	9
      0003A9 00 05                 3797 	.dw	Sstm8s_uart1$UART1_SmartCardCmd$369-Sstm8s_uart1$UART1_SmartCardCmd$367
      0003AB 03                    3798 	.db	3
      0003AC 02                    3799 	.sleb128	2
      0003AD 01                    3800 	.db	1
      0003AE 09                    3801 	.db	9
      0003AF 00 01                 3802 	.dw	1+Sstm8s_uart1$UART1_SmartCardCmd$370-Sstm8s_uart1$UART1_SmartCardCmd$369
      0003B1 00                    3803 	.db	0
      0003B2 01                    3804 	.uleb128	1
      0003B3 01                    3805 	.db	1
      0003B4 00                    3806 	.db	0
      0003B5 05                    3807 	.uleb128	5
      0003B6 02                    3808 	.db	2
      0003B7 00 00r05r3D           3809 	.dw	0,(Sstm8s_uart1$UART1_SmartCardNACKCmd$372)
      0003BB 03                    3810 	.db	3
      0003BC 89 03                 3811 	.sleb128	393
      0003BE 01                    3812 	.db	1
      0003BF 09                    3813 	.db	9
      0003C0 00 00                 3814 	.dw	Sstm8s_uart1$UART1_SmartCardNACKCmd$374-Sstm8s_uart1$UART1_SmartCardNACKCmd$372
      0003C2 03                    3815 	.db	3
      0003C3 02                    3816 	.sleb128	2
      0003C4 01                    3817 	.db	1
      0003C5 09                    3818 	.db	9
      0003C6 00 1E                 3819 	.dw	Sstm8s_uart1$UART1_SmartCardNACKCmd$382-Sstm8s_uart1$UART1_SmartCardNACKCmd$374
      0003C8 03                    3820 	.db	3
      0003C9 05                    3821 	.sleb128	5
      0003CA 01                    3822 	.db	1
      0003CB 09                    3823 	.db	9
      0003CC 00 03                 3824 	.dw	Sstm8s_uart1$UART1_SmartCardNACKCmd$383-Sstm8s_uart1$UART1_SmartCardNACKCmd$382
      0003CE 03                    3825 	.db	3
      0003CF 7D                    3826 	.sleb128	-3
      0003D0 01                    3827 	.db	1
      0003D1 09                    3828 	.db	9
      0003D2 00 07                 3829 	.dw	Sstm8s_uart1$UART1_SmartCardNACKCmd$385-Sstm8s_uart1$UART1_SmartCardNACKCmd$383
      0003D4 03                    3830 	.db	3
      0003D5 03                    3831 	.sleb128	3
      0003D6 01                    3832 	.db	1
      0003D7 09                    3833 	.db	9
      0003D8 00 08                 3834 	.dw	Sstm8s_uart1$UART1_SmartCardNACKCmd$388-Sstm8s_uart1$UART1_SmartCardNACKCmd$385
      0003DA 03                    3835 	.db	3
      0003DB 05                    3836 	.sleb128	5
      0003DC 01                    3837 	.db	1
      0003DD 09                    3838 	.db	9
      0003DE 00 05                 3839 	.dw	Sstm8s_uart1$UART1_SmartCardNACKCmd$390-Sstm8s_uart1$UART1_SmartCardNACKCmd$388
      0003E0 03                    3840 	.db	3
      0003E1 02                    3841 	.sleb128	2
      0003E2 01                    3842 	.db	1
      0003E3 09                    3843 	.db	9
      0003E4 00 01                 3844 	.dw	1+Sstm8s_uart1$UART1_SmartCardNACKCmd$391-Sstm8s_uart1$UART1_SmartCardNACKCmd$390
      0003E6 00                    3845 	.db	0
      0003E7 01                    3846 	.uleb128	1
      0003E8 01                    3847 	.db	1
      0003E9 00                    3848 	.db	0
      0003EA 05                    3849 	.uleb128	5
      0003EB 02                    3850 	.db	2
      0003EC 00 00r05r73           3851 	.dw	0,(Sstm8s_uart1$UART1_WakeUpConfig$393)
      0003F0 03                    3852 	.db	3
      0003F1 9F 03                 3853 	.sleb128	415
      0003F3 01                    3854 	.db	1
      0003F4 09                    3855 	.db	9
      0003F5 00 00                 3856 	.dw	Sstm8s_uart1$UART1_WakeUpConfig$395-Sstm8s_uart1$UART1_WakeUpConfig$393
      0003F7 03                    3857 	.db	3
      0003F8 02                    3858 	.sleb128	2
      0003F9 01                    3859 	.db	1
      0003FA 09                    3860 	.db	9
      0003FB 00 1F                 3861 	.dw	Sstm8s_uart1$UART1_WakeUpConfig$403-Sstm8s_uart1$UART1_WakeUpConfig$395
      0003FD 03                    3862 	.db	3
      0003FE 02                    3863 	.sleb128	2
      0003FF 01                    3864 	.db	1
      000400 09                    3865 	.db	9
      000401 00 08                 3866 	.dw	Sstm8s_uart1$UART1_WakeUpConfig$404-Sstm8s_uart1$UART1_WakeUpConfig$403
      000403 03                    3867 	.db	3
      000404 01                    3868 	.sleb128	1
      000405 01                    3869 	.db	1
      000406 09                    3870 	.db	9
      000407 00 08                 3871 	.dw	Sstm8s_uart1$UART1_WakeUpConfig$405-Sstm8s_uart1$UART1_WakeUpConfig$404
      000409 03                    3872 	.db	3
      00040A 01                    3873 	.sleb128	1
      00040B 01                    3874 	.db	1
      00040C 09                    3875 	.db	9
      00040D 00 01                 3876 	.dw	1+Sstm8s_uart1$UART1_WakeUpConfig$406-Sstm8s_uart1$UART1_WakeUpConfig$405
      00040F 00                    3877 	.db	0
      000410 01                    3878 	.uleb128	1
      000411 01                    3879 	.db	1
      000412 00                    3880 	.db	0
      000413 05                    3881 	.uleb128	5
      000414 02                    3882 	.db	2
      000415 00 00r05rA3           3883 	.dw	0,(Sstm8s_uart1$UART1_ReceiverWakeUpCmd$408)
      000419 03                    3884 	.db	3
      00041A AD 03                 3885 	.sleb128	429
      00041C 01                    3886 	.db	1
      00041D 09                    3887 	.db	9
      00041E 00 00                 3888 	.dw	Sstm8s_uart1$UART1_ReceiverWakeUpCmd$410-Sstm8s_uart1$UART1_ReceiverWakeUpCmd$408
      000420 03                    3889 	.db	3
      000421 02                    3890 	.sleb128	2
      000422 01                    3891 	.db	1
      000423 09                    3892 	.db	9
      000424 00 1E                 3893 	.dw	Sstm8s_uart1$UART1_ReceiverWakeUpCmd$418-Sstm8s_uart1$UART1_ReceiverWakeUpCmd$410
      000426 03                    3894 	.db	3
      000427 05                    3895 	.sleb128	5
      000428 01                    3896 	.db	1
      000429 09                    3897 	.db	9
      00042A 00 03                 3898 	.dw	Sstm8s_uart1$UART1_ReceiverWakeUpCmd$419-Sstm8s_uart1$UART1_ReceiverWakeUpCmd$418
      00042C 03                    3899 	.db	3
      00042D 7D                    3900 	.sleb128	-3
      00042E 01                    3901 	.db	1
      00042F 09                    3902 	.db	9
      000430 00 07                 3903 	.dw	Sstm8s_uart1$UART1_ReceiverWakeUpCmd$421-Sstm8s_uart1$UART1_ReceiverWakeUpCmd$419
      000432 03                    3904 	.db	3
      000433 03                    3905 	.sleb128	3
      000434 01                    3906 	.db	1
      000435 09                    3907 	.db	9
      000436 00 08                 3908 	.dw	Sstm8s_uart1$UART1_ReceiverWakeUpCmd$424-Sstm8s_uart1$UART1_ReceiverWakeUpCmd$421
      000438 03                    3909 	.db	3
      000439 05                    3910 	.sleb128	5
      00043A 01                    3911 	.db	1
      00043B 09                    3912 	.db	9
      00043C 00 05                 3913 	.dw	Sstm8s_uart1$UART1_ReceiverWakeUpCmd$426-Sstm8s_uart1$UART1_ReceiverWakeUpCmd$424
      00043E 03                    3914 	.db	3
      00043F 02                    3915 	.sleb128	2
      000440 01                    3916 	.db	1
      000441 09                    3917 	.db	9
      000442 00 01                 3918 	.dw	1+Sstm8s_uart1$UART1_ReceiverWakeUpCmd$427-Sstm8s_uart1$UART1_ReceiverWakeUpCmd$426
      000444 00                    3919 	.db	0
      000445 01                    3920 	.uleb128	1
      000446 01                    3921 	.db	1
      000447 00                    3922 	.db	0
      000448 05                    3923 	.uleb128	5
      000449 02                    3924 	.db	2
      00044A 00 00r05rD9           3925 	.dw	0,(Sstm8s_uart1$UART1_ReceiveData8$429)
      00044E 03                    3926 	.db	3
      00044F C2 03                 3927 	.sleb128	450
      000451 01                    3928 	.db	1
      000452 09                    3929 	.db	9
      000453 00 00                 3930 	.dw	Sstm8s_uart1$UART1_ReceiveData8$431-Sstm8s_uart1$UART1_ReceiveData8$429
      000455 03                    3931 	.db	3
      000456 02                    3932 	.sleb128	2
      000457 01                    3933 	.db	1
      000458 09                    3934 	.db	9
      000459 00 03                 3935 	.dw	Sstm8s_uart1$UART1_ReceiveData8$432-Sstm8s_uart1$UART1_ReceiveData8$431
      00045B 03                    3936 	.db	3
      00045C 01                    3937 	.sleb128	1
      00045D 01                    3938 	.db	1
      00045E 09                    3939 	.db	9
      00045F 00 01                 3940 	.dw	1+Sstm8s_uart1$UART1_ReceiveData8$433-Sstm8s_uart1$UART1_ReceiveData8$432
      000461 00                    3941 	.db	0
      000462 01                    3942 	.uleb128	1
      000463 01                    3943 	.db	1
      000464 00                    3944 	.db	0
      000465 05                    3945 	.uleb128	5
      000466 02                    3946 	.db	2
      000467 00 00r05rDD           3947 	.dw	0,(Sstm8s_uart1$UART1_ReceiveData9$435)
      00046B 03                    3948 	.db	3
      00046C CC 03                 3949 	.sleb128	460
      00046E 01                    3950 	.db	1
      00046F 09                    3951 	.db	9
      000470 00 01                 3952 	.dw	Sstm8s_uart1$UART1_ReceiveData9$438-Sstm8s_uart1$UART1_ReceiveData9$435
      000472 03                    3953 	.db	3
      000473 04                    3954 	.sleb128	4
      000474 01                    3955 	.db	1
      000475 09                    3956 	.db	9
      000476 00 0C                 3957 	.dw	Sstm8s_uart1$UART1_ReceiveData9$439-Sstm8s_uart1$UART1_ReceiveData9$438
      000478 03                    3958 	.db	3
      000479 01                    3959 	.sleb128	1
      00047A 01                    3960 	.db	1
      00047B 09                    3961 	.db	9
      00047C 00 0D                 3962 	.dw	Sstm8s_uart1$UART1_ReceiveData9$440-Sstm8s_uart1$UART1_ReceiveData9$439
      00047E 03                    3963 	.db	3
      00047F 01                    3964 	.sleb128	1
      000480 01                    3965 	.db	1
      000481 09                    3966 	.db	9
      000482 00 03                 3967 	.dw	1+Sstm8s_uart1$UART1_ReceiveData9$442-Sstm8s_uart1$UART1_ReceiveData9$440
      000484 00                    3968 	.db	0
      000485 01                    3969 	.uleb128	1
      000486 01                    3970 	.db	1
      000487 00                    3971 	.db	0
      000488 05                    3972 	.uleb128	5
      000489 02                    3973 	.db	2
      00048A 00 00r05rFA           3974 	.dw	0,(Sstm8s_uart1$UART1_SendData8$444)
      00048E 03                    3975 	.db	3
      00048F D9 03                 3976 	.sleb128	473
      000491 01                    3977 	.db	1
      000492 09                    3978 	.db	9
      000493 00 00                 3979 	.dw	Sstm8s_uart1$UART1_SendData8$446-Sstm8s_uart1$UART1_SendData8$444
      000495 03                    3980 	.db	3
      000496 03                    3981 	.sleb128	3
      000497 01                    3982 	.db	1
      000498 09                    3983 	.db	9
      000499 00 06                 3984 	.dw	Sstm8s_uart1$UART1_SendData8$447-Sstm8s_uart1$UART1_SendData8$446
      00049B 03                    3985 	.db	3
      00049C 01                    3986 	.sleb128	1
      00049D 01                    3987 	.db	1
      00049E 09                    3988 	.db	9
      00049F 00 01                 3989 	.dw	1+Sstm8s_uart1$UART1_SendData8$448-Sstm8s_uart1$UART1_SendData8$447
      0004A1 00                    3990 	.db	0
      0004A2 01                    3991 	.uleb128	1
      0004A3 01                    3992 	.db	1
      0004A4 00                    3993 	.db	0
      0004A5 05                    3994 	.uleb128	5
      0004A6 02                    3995 	.db	2
      0004A7 00 00r06r01           3996 	.dw	0,(Sstm8s_uart1$UART1_SendData9$450)
      0004AB 03                    3997 	.db	3
      0004AC E5 03                 3998 	.sleb128	485
      0004AE 01                    3999 	.db	1
      0004AF 09                    4000 	.db	9
      0004B0 00 01                 4001 	.dw	Sstm8s_uart1$UART1_SendData9$453-Sstm8s_uart1$UART1_SendData9$450
      0004B2 03                    4002 	.db	3
      0004B3 03                    4003 	.sleb128	3
      0004B4 01                    4004 	.db	1
      0004B5 09                    4005 	.db	9
      0004B6 00 08                 4006 	.dw	Sstm8s_uart1$UART1_SendData9$454-Sstm8s_uart1$UART1_SendData9$453
      0004B8 03                    4007 	.db	3
      0004B9 02                    4008 	.sleb128	2
      0004BA 01                    4009 	.db	1
      0004BB 09                    4010 	.db	9
      0004BC 00 11                 4011 	.dw	Sstm8s_uart1$UART1_SendData9$455-Sstm8s_uart1$UART1_SendData9$454
      0004BE 03                    4012 	.db	3
      0004BF 02                    4013 	.sleb128	2
      0004C0 01                    4014 	.db	1
      0004C1 09                    4015 	.db	9
      0004C2 00 05                 4016 	.dw	Sstm8s_uart1$UART1_SendData9$456-Sstm8s_uart1$UART1_SendData9$455
      0004C4 03                    4017 	.db	3
      0004C5 01                    4018 	.sleb128	1
      0004C6 01                    4019 	.db	1
      0004C7 09                    4020 	.db	9
      0004C8 00 02                 4021 	.dw	1+Sstm8s_uart1$UART1_SendData9$458-Sstm8s_uart1$UART1_SendData9$456
      0004CA 00                    4022 	.db	0
      0004CB 01                    4023 	.uleb128	1
      0004CC 01                    4024 	.db	1
      0004CD 00                    4025 	.db	0
      0004CE 05                    4026 	.uleb128	5
      0004CF 02                    4027 	.db	2
      0004D0 00 00r06r22           4028 	.dw	0,(Sstm8s_uart1$UART1_SendBreak$460)
      0004D4 03                    4029 	.db	3
      0004D5 F4 03                 4030 	.sleb128	500
      0004D7 01                    4031 	.db	1
      0004D8 09                    4032 	.db	9
      0004D9 00 00                 4033 	.dw	Sstm8s_uart1$UART1_SendBreak$462-Sstm8s_uart1$UART1_SendBreak$460
      0004DB 03                    4034 	.db	3
      0004DC 02                    4035 	.sleb128	2
      0004DD 01                    4036 	.db	1
      0004DE 09                    4037 	.db	9
      0004DF 00 08                 4038 	.dw	Sstm8s_uart1$UART1_SendBreak$463-Sstm8s_uart1$UART1_SendBreak$462
      0004E1 03                    4039 	.db	3
      0004E2 01                    4040 	.sleb128	1
      0004E3 01                    4041 	.db	1
      0004E4 09                    4042 	.db	9
      0004E5 00 01                 4043 	.dw	1+Sstm8s_uart1$UART1_SendBreak$464-Sstm8s_uart1$UART1_SendBreak$463
      0004E7 00                    4044 	.db	0
      0004E8 01                    4045 	.uleb128	1
      0004E9 01                    4046 	.db	1
      0004EA 00                    4047 	.db	0
      0004EB 05                    4048 	.uleb128	5
      0004EC 02                    4049 	.db	2
      0004ED 00 00r06r2B           4050 	.dw	0,(Sstm8s_uart1$UART1_SetAddress$466)
      0004F1 03                    4051 	.db	3
      0004F2 FE 03                 4052 	.sleb128	510
      0004F4 01                    4053 	.db	1
      0004F5 09                    4054 	.db	9
      0004F6 00 00                 4055 	.dw	Sstm8s_uart1$UART1_SetAddress$468-Sstm8s_uart1$UART1_SetAddress$466
      0004F8 03                    4056 	.db	3
      0004F9 03                    4057 	.sleb128	3
      0004FA 01                    4058 	.db	1
      0004FB 09                    4059 	.db	9
      0004FC 00 18                 4060 	.dw	Sstm8s_uart1$UART1_SetAddress$475-Sstm8s_uart1$UART1_SetAddress$468
      0004FE 03                    4061 	.db	3
      0004FF 03                    4062 	.sleb128	3
      000500 01                    4063 	.db	1
      000501 09                    4064 	.db	9
      000502 00 08                 4065 	.dw	Sstm8s_uart1$UART1_SetAddress$476-Sstm8s_uart1$UART1_SetAddress$475
      000504 03                    4066 	.db	3
      000505 02                    4067 	.sleb128	2
      000506 01                    4068 	.db	1
      000507 09                    4069 	.db	9
      000508 00 08                 4070 	.dw	Sstm8s_uart1$UART1_SetAddress$477-Sstm8s_uart1$UART1_SetAddress$476
      00050A 03                    4071 	.db	3
      00050B 01                    4072 	.sleb128	1
      00050C 01                    4073 	.db	1
      00050D 09                    4074 	.db	9
      00050E 00 01                 4075 	.dw	1+Sstm8s_uart1$UART1_SetAddress$478-Sstm8s_uart1$UART1_SetAddress$477
      000510 00                    4076 	.db	0
      000511 01                    4077 	.uleb128	1
      000512 01                    4078 	.db	1
      000513 00                    4079 	.db	0
      000514 05                    4080 	.uleb128	5
      000515 02                    4081 	.db	2
      000516 00 00r06r54           4082 	.dw	0,(Sstm8s_uart1$UART1_SetGuardTime$480)
      00051A 03                    4083 	.db	3
      00051B 8F 04                 4084 	.sleb128	527
      00051D 01                    4085 	.db	1
      00051E 09                    4086 	.db	9
      00051F 00 00                 4087 	.dw	Sstm8s_uart1$UART1_SetGuardTime$482-Sstm8s_uart1$UART1_SetGuardTime$480
      000521 03                    4088 	.db	3
      000522 03                    4089 	.sleb128	3
      000523 01                    4090 	.db	1
      000524 09                    4091 	.db	9
      000525 00 06                 4092 	.dw	Sstm8s_uart1$UART1_SetGuardTime$483-Sstm8s_uart1$UART1_SetGuardTime$482
      000527 03                    4093 	.db	3
      000528 01                    4094 	.sleb128	1
      000529 01                    4095 	.db	1
      00052A 09                    4096 	.db	9
      00052B 00 01                 4097 	.dw	1+Sstm8s_uart1$UART1_SetGuardTime$484-Sstm8s_uart1$UART1_SetGuardTime$483
      00052D 00                    4098 	.db	0
      00052E 01                    4099 	.uleb128	1
      00052F 01                    4100 	.db	1
      000530 00                    4101 	.db	0
      000531 05                    4102 	.uleb128	5
      000532 02                    4103 	.db	2
      000533 00 00r06r5B           4104 	.dw	0,(Sstm8s_uart1$UART1_SetPrescaler$486)
      000537 03                    4105 	.db	3
      000538 AB 04                 4106 	.sleb128	555
      00053A 01                    4107 	.db	1
      00053B 09                    4108 	.db	9
      00053C 00 00                 4109 	.dw	Sstm8s_uart1$UART1_SetPrescaler$488-Sstm8s_uart1$UART1_SetPrescaler$486
      00053E 03                    4110 	.db	3
      00053F 03                    4111 	.sleb128	3
      000540 01                    4112 	.db	1
      000541 09                    4113 	.db	9
      000542 00 06                 4114 	.dw	Sstm8s_uart1$UART1_SetPrescaler$489-Sstm8s_uart1$UART1_SetPrescaler$488
      000544 03                    4115 	.db	3
      000545 01                    4116 	.sleb128	1
      000546 01                    4117 	.db	1
      000547 09                    4118 	.db	9
      000548 00 01                 4119 	.dw	1+Sstm8s_uart1$UART1_SetPrescaler$490-Sstm8s_uart1$UART1_SetPrescaler$489
      00054A 00                    4120 	.db	0
      00054B 01                    4121 	.uleb128	1
      00054C 01                    4122 	.db	1
      00054D 00                    4123 	.db	0
      00054E 05                    4124 	.uleb128	5
      00054F 02                    4125 	.db	2
      000550 00 00r06r62           4126 	.dw	0,(Sstm8s_uart1$UART1_GetFlagStatus$492)
      000554 03                    4127 	.db	3
      000555 B7 04                 4128 	.sleb128	567
      000557 01                    4129 	.db	1
      000558 09                    4130 	.db	9
      000559 00 01                 4131 	.dw	Sstm8s_uart1$UART1_GetFlagStatus$495-Sstm8s_uart1$UART1_GetFlagStatus$492
      00055B 03                    4132 	.db	3
      00055C 05                    4133 	.sleb128	5
      00055D 01                    4134 	.db	1
      00055E 09                    4135 	.db	9
      00055F 00 77                 4136 	.dw	Sstm8s_uart1$UART1_GetFlagStatus$514-Sstm8s_uart1$UART1_GetFlagStatus$495
      000561 03                    4137 	.db	3
      000562 06                    4138 	.sleb128	6
      000563 01                    4139 	.db	1
      000564 09                    4140 	.db	9
      000565 00 06                 4141 	.dw	Sstm8s_uart1$UART1_GetFlagStatus$517-Sstm8s_uart1$UART1_GetFlagStatus$514
      000567 03                    4142 	.db	3
      000568 7E                    4143 	.sleb128	-2
      000569 01                    4144 	.db	1
      00056A 09                    4145 	.db	9
      00056B 00 06                 4146 	.dw	Sstm8s_uart1$UART1_GetFlagStatus$519-Sstm8s_uart1$UART1_GetFlagStatus$517
      00056D 03                    4147 	.db	3
      00056E 02                    4148 	.sleb128	2
      00056F 01                    4149 	.db	1
      000570 09                    4150 	.db	9
      000571 00 0B                 4151 	.dw	Sstm8s_uart1$UART1_GetFlagStatus$521-Sstm8s_uart1$UART1_GetFlagStatus$519
      000573 03                    4152 	.db	3
      000574 03                    4153 	.sleb128	3
      000575 01                    4154 	.db	1
      000576 09                    4155 	.db	9
      000577 00 05                 4156 	.dw	Sstm8s_uart1$UART1_GetFlagStatus$524-Sstm8s_uart1$UART1_GetFlagStatus$521
      000579 03                    4157 	.db	3
      00057A 05                    4158 	.sleb128	5
      00057B 01                    4159 	.db	1
      00057C 09                    4160 	.db	9
      00057D 00 04                 4161 	.dw	Sstm8s_uart1$UART1_GetFlagStatus$526-Sstm8s_uart1$UART1_GetFlagStatus$524
      00057F 03                    4162 	.db	3
      000580 03                    4163 	.sleb128	3
      000581 01                    4164 	.db	1
      000582 09                    4165 	.db	9
      000583 00 08                 4166 	.dw	Sstm8s_uart1$UART1_GetFlagStatus$528-Sstm8s_uart1$UART1_GetFlagStatus$526
      000585 03                    4167 	.db	3
      000586 02                    4168 	.sleb128	2
      000587 01                    4169 	.db	1
      000588 09                    4170 	.db	9
      000589 00 0B                 4171 	.dw	Sstm8s_uart1$UART1_GetFlagStatus$530-Sstm8s_uart1$UART1_GetFlagStatus$528
      00058B 03                    4172 	.db	3
      00058C 03                    4173 	.sleb128	3
      00058D 01                    4174 	.db	1
      00058E 09                    4175 	.db	9
      00058F 00 05                 4176 	.dw	Sstm8s_uart1$UART1_GetFlagStatus$533-Sstm8s_uart1$UART1_GetFlagStatus$530
      000591 03                    4177 	.db	3
      000592 05                    4178 	.sleb128	5
      000593 01                    4179 	.db	1
      000594 09                    4180 	.db	9
      000595 00 04                 4181 	.dw	Sstm8s_uart1$UART1_GetFlagStatus$536-Sstm8s_uart1$UART1_GetFlagStatus$533
      000597 03                    4182 	.db	3
      000598 05                    4183 	.sleb128	5
      000599 01                    4184 	.db	1
      00059A 09                    4185 	.db	9
      00059B 00 0B                 4186 	.dw	Sstm8s_uart1$UART1_GetFlagStatus$538-Sstm8s_uart1$UART1_GetFlagStatus$536
      00059D 03                    4187 	.db	3
      00059E 03                    4188 	.sleb128	3
      00059F 01                    4189 	.db	1
      0005A0 09                    4190 	.db	9
      0005A1 00 05                 4191 	.dw	Sstm8s_uart1$UART1_GetFlagStatus$541-Sstm8s_uart1$UART1_GetFlagStatus$538
      0005A3 03                    4192 	.db	3
      0005A4 05                    4193 	.sleb128	5
      0005A5 01                    4194 	.db	1
      0005A6 09                    4195 	.db	9
      0005A7 00 01                 4196 	.dw	Sstm8s_uart1$UART1_GetFlagStatus$543-Sstm8s_uart1$UART1_GetFlagStatus$541
      0005A9 03                    4197 	.db	3
      0005AA 04                    4198 	.sleb128	4
      0005AB 01                    4199 	.db	1
      0005AC 09                    4200 	.db	9
      0005AD 00 00                 4201 	.dw	Sstm8s_uart1$UART1_GetFlagStatus$544-Sstm8s_uart1$UART1_GetFlagStatus$543
      0005AF 03                    4202 	.db	3
      0005B0 01                    4203 	.sleb128	1
      0005B1 01                    4204 	.db	1
      0005B2 09                    4205 	.db	9
      0005B3 00 02                 4206 	.dw	1+Sstm8s_uart1$UART1_GetFlagStatus$546-Sstm8s_uart1$UART1_GetFlagStatus$544
      0005B5 00                    4207 	.db	0
      0005B6 01                    4208 	.uleb128	1
      0005B7 01                    4209 	.db	1
      0005B8 00                    4210 	.db	0
      0005B9 05                    4211 	.uleb128	5
      0005BA 02                    4212 	.db	2
      0005BB 00 00r07r29           4213 	.dw	0,(Sstm8s_uart1$UART1_ClearFlag$548)
      0005BF 03                    4214 	.db	3
      0005C0 85 05                 4215 	.sleb128	645
      0005C2 01                    4216 	.db	1
      0005C3 09                    4217 	.db	9
      0005C4 00 00                 4218 	.dw	Sstm8s_uart1$UART1_ClearFlag$550-Sstm8s_uart1$UART1_ClearFlag$548
      0005C6 03                    4219 	.db	3
      0005C7 02                    4220 	.sleb128	2
      0005C8 01                    4221 	.db	1
      0005C9 09                    4222 	.db	9
      0005CA 00 2C                 4223 	.dw	Sstm8s_uart1$UART1_ClearFlag$561-Sstm8s_uart1$UART1_ClearFlag$550
      0005CC 03                    4224 	.db	3
      0005CD 03                    4225 	.sleb128	3
      0005CE 01                    4226 	.db	1
      0005CF 09                    4227 	.db	9
      0005D0 00 06                 4228 	.dw	Sstm8s_uart1$UART1_ClearFlag$563-Sstm8s_uart1$UART1_ClearFlag$561
      0005D2 03                    4229 	.db	3
      0005D3 02                    4230 	.sleb128	2
      0005D4 01                    4231 	.db	1
      0005D5 09                    4232 	.db	9
      0005D6 00 07                 4233 	.dw	Sstm8s_uart1$UART1_ClearFlag$566-Sstm8s_uart1$UART1_ClearFlag$563
      0005D8 03                    4234 	.db	3
      0005D9 05                    4235 	.sleb128	5
      0005DA 01                    4236 	.db	1
      0005DB 09                    4237 	.db	9
      0005DC 00 08                 4238 	.dw	Sstm8s_uart1$UART1_ClearFlag$568-Sstm8s_uart1$UART1_ClearFlag$566
      0005DE 03                    4239 	.db	3
      0005DF 02                    4240 	.sleb128	2
      0005E0 01                    4241 	.db	1
      0005E1 09                    4242 	.db	9
      0005E2 00 01                 4243 	.dw	1+Sstm8s_uart1$UART1_ClearFlag$569-Sstm8s_uart1$UART1_ClearFlag$568
      0005E4 00                    4244 	.db	0
      0005E5 01                    4245 	.uleb128	1
      0005E6 01                    4246 	.db	1
      0005E7 00                    4247 	.db	0
      0005E8 05                    4248 	.uleb128	5
      0005E9 02                    4249 	.db	2
      0005EA 00 00r07r6B           4250 	.dw	0,(Sstm8s_uart1$UART1_GetITStatus$571)
      0005EE 03                    4251 	.db	3
      0005EF A2 05                 4252 	.sleb128	674
      0005F1 01                    4253 	.db	1
      0005F2 09                    4254 	.db	9
      0005F3 00 02                 4255 	.dw	Sstm8s_uart1$UART1_GetITStatus$574-Sstm8s_uart1$UART1_GetITStatus$571
      0005F5 03                    4256 	.db	3
      0005F6 09                    4257 	.sleb128	9
      0005F7 01                    4258 	.db	1
      0005F8 09                    4259 	.db	9
      0005F9 00 63                 4260 	.dw	Sstm8s_uart1$UART1_GetITStatus$588-Sstm8s_uart1$UART1_GetITStatus$574
      0005FB 03                    4261 	.db	3
      0005FC 03                    4262 	.sleb128	3
      0005FD 01                    4263 	.db	1
      0005FE 09                    4264 	.db	9
      0005FF 00 14                 4265 	.dw	Sstm8s_uart1$UART1_GetITStatus$591-Sstm8s_uart1$UART1_GetITStatus$588
      000601 03                    4266 	.db	3
      000602 02                    4267 	.sleb128	2
      000603 01                    4268 	.db	1
      000604 09                    4269 	.db	9
      000605 00 04                 4270 	.dw	Sstm8s_uart1$UART1_GetITStatus$592-Sstm8s_uart1$UART1_GetITStatus$591
      000607 03                    4271 	.db	3
      000608 02                    4272 	.sleb128	2
      000609 01                    4273 	.db	1
      00060A 09                    4274 	.db	9
      00060B 00 0E                 4275 	.dw	Sstm8s_uart1$UART1_GetITStatus$595-Sstm8s_uart1$UART1_GetITStatus$592
      00060D 03                    4276 	.db	3
      00060E 04                    4277 	.sleb128	4
      00060F 01                    4278 	.db	1
      000610 09                    4279 	.db	9
      000611 00 08                 4280 	.dw	Sstm8s_uart1$UART1_GetITStatus$597-Sstm8s_uart1$UART1_GetITStatus$595
      000613 03                    4281 	.db	3
      000614 03                    4282 	.sleb128	3
      000615 01                    4283 	.db	1
      000616 09                    4284 	.db	9
      000617 00 06                 4285 	.dw	Sstm8s_uart1$UART1_GetITStatus$598-Sstm8s_uart1$UART1_GetITStatus$597
      000619 03                    4286 	.db	3
      00061A 03                    4287 	.sleb128	3
      00061B 01                    4288 	.db	1
      00061C 09                    4289 	.db	9
      00061D 00 12                 4290 	.dw	Sstm8s_uart1$UART1_GetITStatus$600-Sstm8s_uart1$UART1_GetITStatus$598
      00061F 03                    4291 	.db	3
      000620 03                    4292 	.sleb128	3
      000621 01                    4293 	.db	1
      000622 09                    4294 	.db	9
      000623 00 05                 4295 	.dw	Sstm8s_uart1$UART1_GetITStatus$603-Sstm8s_uart1$UART1_GetITStatus$600
      000625 03                    4296 	.db	3
      000626 05                    4297 	.sleb128	5
      000627 01                    4298 	.db	1
      000628 09                    4299 	.db	9
      000629 00 04                 4300 	.dw	Sstm8s_uart1$UART1_GetITStatus$605-Sstm8s_uart1$UART1_GetITStatus$603
      00062B 03                    4301 	.db	3
      00062C 04                    4302 	.sleb128	4
      00062D 01                    4303 	.db	1
      00062E 09                    4304 	.db	9
      00062F 00 08                 4305 	.dw	Sstm8s_uart1$UART1_GetITStatus$607-Sstm8s_uart1$UART1_GetITStatus$605
      000631 03                    4306 	.db	3
      000632 03                    4307 	.sleb128	3
      000633 01                    4308 	.db	1
      000634 09                    4309 	.db	9
      000635 00 06                 4310 	.dw	Sstm8s_uart1$UART1_GetITStatus$608-Sstm8s_uart1$UART1_GetITStatus$607
      000637 03                    4311 	.db	3
      000638 02                    4312 	.sleb128	2
      000639 01                    4313 	.db	1
      00063A 09                    4314 	.db	9
      00063B 00 12                 4315 	.dw	Sstm8s_uart1$UART1_GetITStatus$610-Sstm8s_uart1$UART1_GetITStatus$608
      00063D 03                    4316 	.db	3
      00063E 03                    4317 	.sleb128	3
      00063F 01                    4318 	.db	1
      000640 09                    4319 	.db	9
      000641 00 05                 4320 	.dw	Sstm8s_uart1$UART1_GetITStatus$613-Sstm8s_uart1$UART1_GetITStatus$610
      000643 03                    4321 	.db	3
      000644 05                    4322 	.sleb128	5
      000645 01                    4323 	.db	1
      000646 09                    4324 	.db	9
      000647 00 04                 4325 	.dw	Sstm8s_uart1$UART1_GetITStatus$616-Sstm8s_uart1$UART1_GetITStatus$613
      000649 03                    4326 	.db	3
      00064A 06                    4327 	.sleb128	6
      00064B 01                    4328 	.db	1
      00064C 09                    4329 	.db	9
      00064D 00 06                 4330 	.dw	Sstm8s_uart1$UART1_GetITStatus$617-Sstm8s_uart1$UART1_GetITStatus$616
      00064F 03                    4331 	.db	3
      000650 02                    4332 	.sleb128	2
      000651 01                    4333 	.db	1
      000652 09                    4334 	.db	9
      000653 00 12                 4335 	.dw	Sstm8s_uart1$UART1_GetITStatus$619-Sstm8s_uart1$UART1_GetITStatus$617
      000655 03                    4336 	.db	3
      000656 03                    4337 	.sleb128	3
      000657 01                    4338 	.db	1
      000658 09                    4339 	.db	9
      000659 00 05                 4340 	.dw	Sstm8s_uart1$UART1_GetITStatus$622-Sstm8s_uart1$UART1_GetITStatus$619
      00065B 03                    4341 	.db	3
      00065C 05                    4342 	.sleb128	5
      00065D 01                    4343 	.db	1
      00065E 09                    4344 	.db	9
      00065F 00 01                 4345 	.dw	Sstm8s_uart1$UART1_GetITStatus$624-Sstm8s_uart1$UART1_GetITStatus$622
      000661 03                    4346 	.db	3
      000662 05                    4347 	.sleb128	5
      000663 01                    4348 	.db	1
      000664 09                    4349 	.db	9
      000665 00 00                 4350 	.dw	Sstm8s_uart1$UART1_GetITStatus$625-Sstm8s_uart1$UART1_GetITStatus$624
      000667 03                    4351 	.db	3
      000668 01                    4352 	.sleb128	1
      000669 01                    4353 	.db	1
      00066A 09                    4354 	.db	9
      00066B 00 03                 4355 	.dw	1+Sstm8s_uart1$UART1_GetITStatus$627-Sstm8s_uart1$UART1_GetITStatus$625
      00066D 00                    4356 	.db	0
      00066E 01                    4357 	.uleb128	1
      00066F 01                    4358 	.db	1
      000670 00                    4359 	.db	0
      000671 05                    4360 	.uleb128	5
      000672 02                    4361 	.db	2
      000673 00 00r08r69           4362 	.dw	0,(Sstm8s_uart1$UART1_ClearITPendingBit$629)
      000677 03                    4363 	.db	3
      000678 86 06                 4364 	.sleb128	774
      00067A 01                    4365 	.db	1
      00067B 09                    4366 	.db	9
      00067C 00 00                 4367 	.dw	Sstm8s_uart1$UART1_ClearITPendingBit$631-Sstm8s_uart1$UART1_ClearITPendingBit$629
      00067E 03                    4368 	.db	3
      00067F 02                    4369 	.sleb128	2
      000680 01                    4370 	.db	1
      000681 09                    4371 	.db	9
      000682 00 2C                 4372 	.dw	Sstm8s_uart1$UART1_ClearITPendingBit$642-Sstm8s_uart1$UART1_ClearITPendingBit$631
      000684 03                    4373 	.db	3
      000685 03                    4374 	.sleb128	3
      000686 01                    4375 	.db	1
      000687 09                    4376 	.db	9
      000688 00 06                 4377 	.dw	Sstm8s_uart1$UART1_ClearITPendingBit$644-Sstm8s_uart1$UART1_ClearITPendingBit$642
      00068A 03                    4378 	.db	3
      00068B 02                    4379 	.sleb128	2
      00068C 01                    4380 	.db	1
      00068D 09                    4381 	.db	9
      00068E 00 07                 4382 	.dw	Sstm8s_uart1$UART1_ClearITPendingBit$647-Sstm8s_uart1$UART1_ClearITPendingBit$644
      000690 03                    4383 	.db	3
      000691 05                    4384 	.sleb128	5
      000692 01                    4385 	.db	1
      000693 09                    4386 	.db	9
      000694 00 08                 4387 	.dw	Sstm8s_uart1$UART1_ClearITPendingBit$649-Sstm8s_uart1$UART1_ClearITPendingBit$647
      000696 03                    4388 	.db	3
      000697 02                    4389 	.sleb128	2
      000698 01                    4390 	.db	1
      000699 09                    4391 	.db	9
      00069A 00 01                 4392 	.dw	1+Sstm8s_uart1$UART1_ClearITPendingBit$650-Sstm8s_uart1$UART1_ClearITPendingBit$649
      00069C 00                    4393 	.db	0
      00069D 01                    4394 	.uleb128	1
      00069E 01                    4395 	.db	1
      00069F                       4396 Ldebug_line_end:
                                   4397 
                                   4398 	.area .debug_loc (NOLOAD)
      000000                       4399 Ldebug_loc_start:
      000000 00 00r08r95           4400 	.dw	0,(Sstm8s_uart1$UART1_ClearITPendingBit$641)
      000004 00 00r08rAB           4401 	.dw	0,(Sstm8s_uart1$UART1_ClearITPendingBit$651)
      000008 00 02                 4402 	.dw	2
      00000A 78                    4403 	.db	120
      00000B 01                    4404 	.sleb128	1
      00000C 00 00r08r94           4405 	.dw	0,(Sstm8s_uart1$UART1_ClearITPendingBit$640)
      000010 00 00r08r95           4406 	.dw	0,(Sstm8s_uart1$UART1_ClearITPendingBit$641)
      000014 00 02                 4407 	.dw	2
      000016 78                    4408 	.db	120
      000017 02                    4409 	.sleb128	2
      000018 00 00r08r8F           4410 	.dw	0,(Sstm8s_uart1$UART1_ClearITPendingBit$639)
      00001C 00 00r08r94           4411 	.dw	0,(Sstm8s_uart1$UART1_ClearITPendingBit$640)
      000020 00 02                 4412 	.dw	2
      000022 78                    4413 	.db	120
      000023 08                    4414 	.sleb128	8
      000024 00 00r08r8D           4415 	.dw	0,(Sstm8s_uart1$UART1_ClearITPendingBit$638)
      000028 00 00r08r8F           4416 	.dw	0,(Sstm8s_uart1$UART1_ClearITPendingBit$639)
      00002C 00 02                 4417 	.dw	2
      00002E 78                    4418 	.db	120
      00002F 07                    4419 	.sleb128	7
      000030 00 00r08r8B           4420 	.dw	0,(Sstm8s_uart1$UART1_ClearITPendingBit$637)
      000034 00 00r08r8D           4421 	.dw	0,(Sstm8s_uart1$UART1_ClearITPendingBit$638)
      000038 00 02                 4422 	.dw	2
      00003A 78                    4423 	.db	120
      00003B 06                    4424 	.sleb128	6
      00003C 00 00r08r89           4425 	.dw	0,(Sstm8s_uart1$UART1_ClearITPendingBit$636)
      000040 00 00r08r8B           4426 	.dw	0,(Sstm8s_uart1$UART1_ClearITPendingBit$637)
      000044 00 02                 4427 	.dw	2
      000046 78                    4428 	.db	120
      000047 04                    4429 	.sleb128	4
      000048 00 00r08r87           4430 	.dw	0,(Sstm8s_uart1$UART1_ClearITPendingBit$635)
      00004C 00 00r08r89           4431 	.dw	0,(Sstm8s_uart1$UART1_ClearITPendingBit$636)
      000050 00 02                 4432 	.dw	2
      000052 78                    4433 	.db	120
      000053 03                    4434 	.sleb128	3
      000054 00 00r08r85           4435 	.dw	0,(Sstm8s_uart1$UART1_ClearITPendingBit$634)
      000058 00 00r08r87           4436 	.dw	0,(Sstm8s_uart1$UART1_ClearITPendingBit$635)
      00005C 00 02                 4437 	.dw	2
      00005E 78                    4438 	.db	120
      00005F 02                    4439 	.sleb128	2
      000060 00 00r08r84           4440 	.dw	0,(Sstm8s_uart1$UART1_ClearITPendingBit$633)
      000064 00 00r08r85           4441 	.dw	0,(Sstm8s_uart1$UART1_ClearITPendingBit$634)
      000068 00 02                 4442 	.dw	2
      00006A 78                    4443 	.db	120
      00006B 01                    4444 	.sleb128	1
      00006C 00 00r08r76           4445 	.dw	0,(Sstm8s_uart1$UART1_ClearITPendingBit$632)
      000070 00 00r08r84           4446 	.dw	0,(Sstm8s_uart1$UART1_ClearITPendingBit$633)
      000074 00 02                 4447 	.dw	2
      000076 78                    4448 	.db	120
      000077 01                    4449 	.sleb128	1
      000078 00 00r08r69           4450 	.dw	0,(Sstm8s_uart1$UART1_ClearITPendingBit$630)
      00007C 00 00r08r76           4451 	.dw	0,(Sstm8s_uart1$UART1_ClearITPendingBit$632)
      000080 00 02                 4452 	.dw	2
      000082 78                    4453 	.db	120
      000083 01                    4454 	.sleb128	1
      000084 00 00 00 00           4455 	.dw	0,0
      000088 00 00 00 00           4456 	.dw	0,0
      00008C 00 00r08r68           4457 	.dw	0,(Sstm8s_uart1$UART1_GetITStatus$626)
      000090 00 00r08r69           4458 	.dw	0,(Sstm8s_uart1$UART1_GetITStatus$628)
      000094 00 02                 4459 	.dw	2
      000096 78                    4460 	.db	120
      000097 01                    4461 	.sleb128	1
      000098 00 00r07rEE           4462 	.dw	0,(Sstm8s_uart1$UART1_GetITStatus$594)
      00009C 00 00r08r68           4463 	.dw	0,(Sstm8s_uart1$UART1_GetITStatus$626)
      0000A0 00 02                 4464 	.dw	2
      0000A2 78                    4465 	.db	120
      0000A3 05                    4466 	.sleb128	5
      0000A4 00 00r07rE9           4467 	.dw	0,(Sstm8s_uart1$UART1_GetITStatus$593)
      0000A8 00 00r07rEE           4468 	.dw	0,(Sstm8s_uart1$UART1_GetITStatus$594)
      0000AC 00 02                 4469 	.dw	2
      0000AE 78                    4470 	.db	120
      0000AF 06                    4471 	.sleb128	6
      0000B0 00 00r07rDC           4472 	.dw	0,(Sstm8s_uart1$UART1_GetITStatus$590)
      0000B4 00 00r07rE9           4473 	.dw	0,(Sstm8s_uart1$UART1_GetITStatus$593)
      0000B8 00 02                 4474 	.dw	2
      0000BA 78                    4475 	.db	120
      0000BB 05                    4476 	.sleb128	5
      0000BC 00 00r07rD7           4477 	.dw	0,(Sstm8s_uart1$UART1_GetITStatus$589)
      0000C0 00 00r07rDC           4478 	.dw	0,(Sstm8s_uart1$UART1_GetITStatus$590)
      0000C4 00 02                 4479 	.dw	2
      0000C6 78                    4480 	.db	120
      0000C7 06                    4481 	.sleb128	6
      0000C8 00 00r07rD0           4482 	.dw	0,(Sstm8s_uart1$UART1_GetITStatus$587)
      0000CC 00 00r07rD7           4483 	.dw	0,(Sstm8s_uart1$UART1_GetITStatus$589)
      0000D0 00 02                 4484 	.dw	2
      0000D2 78                    4485 	.db	120
      0000D3 05                    4486 	.sleb128	5
      0000D4 00 00r07rCB           4487 	.dw	0,(Sstm8s_uart1$UART1_GetITStatus$586)
      0000D8 00 00r07rD0           4488 	.dw	0,(Sstm8s_uart1$UART1_GetITStatus$587)
      0000DC 00 02                 4489 	.dw	2
      0000DE 78                    4490 	.db	120
      0000DF 0B                    4491 	.sleb128	11
      0000E0 00 00r07rC9           4492 	.dw	0,(Sstm8s_uart1$UART1_GetITStatus$585)
      0000E4 00 00r07rCB           4493 	.dw	0,(Sstm8s_uart1$UART1_GetITStatus$586)
      0000E8 00 02                 4494 	.dw	2
      0000EA 78                    4495 	.db	120
      0000EB 0A                    4496 	.sleb128	10
      0000EC 00 00r07rC7           4497 	.dw	0,(Sstm8s_uart1$UART1_GetITStatus$584)
      0000F0 00 00r07rC9           4498 	.dw	0,(Sstm8s_uart1$UART1_GetITStatus$585)
      0000F4 00 02                 4499 	.dw	2
      0000F6 78                    4500 	.db	120
      0000F7 09                    4501 	.sleb128	9
      0000F8 00 00r07rC5           4502 	.dw	0,(Sstm8s_uart1$UART1_GetITStatus$583)
      0000FC 00 00r07rC7           4503 	.dw	0,(Sstm8s_uart1$UART1_GetITStatus$584)
      000100 00 02                 4504 	.dw	2
      000102 78                    4505 	.db	120
      000103 07                    4506 	.sleb128	7
      000104 00 00r07rC3           4507 	.dw	0,(Sstm8s_uart1$UART1_GetITStatus$582)
      000108 00 00r07rC5           4508 	.dw	0,(Sstm8s_uart1$UART1_GetITStatus$583)
      00010C 00 02                 4509 	.dw	2
      00010E 78                    4510 	.db	120
      00010F 06                    4511 	.sleb128	6
      000110 00 00r07rB3           4512 	.dw	0,(Sstm8s_uart1$UART1_GetITStatus$581)
      000114 00 00r07rC3           4513 	.dw	0,(Sstm8s_uart1$UART1_GetITStatus$582)
      000118 00 02                 4514 	.dw	2
      00011A 78                    4515 	.db	120
      00011B 05                    4516 	.sleb128	5
      00011C 00 00r07rAB           4517 	.dw	0,(Sstm8s_uart1$UART1_GetITStatus$580)
      000120 00 00r07rB3           4518 	.dw	0,(Sstm8s_uart1$UART1_GetITStatus$581)
      000124 00 02                 4519 	.dw	2
      000126 78                    4520 	.db	120
      000127 05                    4521 	.sleb128	5
      000128 00 00r07rA3           4522 	.dw	0,(Sstm8s_uart1$UART1_GetITStatus$579)
      00012C 00 00r07rAB           4523 	.dw	0,(Sstm8s_uart1$UART1_GetITStatus$580)
      000130 00 02                 4524 	.dw	2
      000132 78                    4525 	.db	120
      000133 05                    4526 	.sleb128	5
      000134 00 00r07r9B           4527 	.dw	0,(Sstm8s_uart1$UART1_GetITStatus$578)
      000138 00 00r07rA3           4528 	.dw	0,(Sstm8s_uart1$UART1_GetITStatus$579)
      00013C 00 02                 4529 	.dw	2
      00013E 78                    4530 	.db	120
      00013F 05                    4531 	.sleb128	5
      000140 00 00r07r93           4532 	.dw	0,(Sstm8s_uart1$UART1_GetITStatus$577)
      000144 00 00r07r9B           4533 	.dw	0,(Sstm8s_uart1$UART1_GetITStatus$578)
      000148 00 02                 4534 	.dw	2
      00014A 78                    4535 	.db	120
      00014B 05                    4536 	.sleb128	5
      00014C 00 00r07r8B           4537 	.dw	0,(Sstm8s_uart1$UART1_GetITStatus$576)
      000150 00 00r07r93           4538 	.dw	0,(Sstm8s_uart1$UART1_GetITStatus$577)
      000154 00 02                 4539 	.dw	2
      000156 78                    4540 	.db	120
      000157 05                    4541 	.sleb128	5
      000158 00 00r07r7D           4542 	.dw	0,(Sstm8s_uart1$UART1_GetITStatus$575)
      00015C 00 00r07r8B           4543 	.dw	0,(Sstm8s_uart1$UART1_GetITStatus$576)
      000160 00 02                 4544 	.dw	2
      000162 78                    4545 	.db	120
      000163 05                    4546 	.sleb128	5
      000164 00 00r07r6D           4547 	.dw	0,(Sstm8s_uart1$UART1_GetITStatus$573)
      000168 00 00r07r7D           4548 	.dw	0,(Sstm8s_uart1$UART1_GetITStatus$575)
      00016C 00 02                 4549 	.dw	2
      00016E 78                    4550 	.db	120
      00016F 05                    4551 	.sleb128	5
      000170 00 00r07r6B           4552 	.dw	0,(Sstm8s_uart1$UART1_GetITStatus$572)
      000174 00 00r07r6D           4553 	.dw	0,(Sstm8s_uart1$UART1_GetITStatus$573)
      000178 00 02                 4554 	.dw	2
      00017A 78                    4555 	.db	120
      00017B 01                    4556 	.sleb128	1
      00017C 00 00 00 00           4557 	.dw	0,0
      000180 00 00 00 00           4558 	.dw	0,0
      000184 00 00r07r55           4559 	.dw	0,(Sstm8s_uart1$UART1_ClearFlag$560)
      000188 00 00r07r6B           4560 	.dw	0,(Sstm8s_uart1$UART1_ClearFlag$570)
      00018C 00 02                 4561 	.dw	2
      00018E 78                    4562 	.db	120
      00018F 01                    4563 	.sleb128	1
      000190 00 00r07r54           4564 	.dw	0,(Sstm8s_uart1$UART1_ClearFlag$559)
      000194 00 00r07r55           4565 	.dw	0,(Sstm8s_uart1$UART1_ClearFlag$560)
      000198 00 02                 4566 	.dw	2
      00019A 78                    4567 	.db	120
      00019B 02                    4568 	.sleb128	2
      00019C 00 00r07r4F           4569 	.dw	0,(Sstm8s_uart1$UART1_ClearFlag$558)
      0001A0 00 00r07r54           4570 	.dw	0,(Sstm8s_uart1$UART1_ClearFlag$559)
      0001A4 00 02                 4571 	.dw	2
      0001A6 78                    4572 	.db	120
      0001A7 08                    4573 	.sleb128	8
      0001A8 00 00r07r4D           4574 	.dw	0,(Sstm8s_uart1$UART1_ClearFlag$557)
      0001AC 00 00r07r4F           4575 	.dw	0,(Sstm8s_uart1$UART1_ClearFlag$558)
      0001B0 00 02                 4576 	.dw	2
      0001B2 78                    4577 	.db	120
      0001B3 07                    4578 	.sleb128	7
      0001B4 00 00r07r4B           4579 	.dw	0,(Sstm8s_uart1$UART1_ClearFlag$556)
      0001B8 00 00r07r4D           4580 	.dw	0,(Sstm8s_uart1$UART1_ClearFlag$557)
      0001BC 00 02                 4581 	.dw	2
      0001BE 78                    4582 	.db	120
      0001BF 06                    4583 	.sleb128	6
      0001C0 00 00r07r49           4584 	.dw	0,(Sstm8s_uart1$UART1_ClearFlag$555)
      0001C4 00 00r07r4B           4585 	.dw	0,(Sstm8s_uart1$UART1_ClearFlag$556)
      0001C8 00 02                 4586 	.dw	2
      0001CA 78                    4587 	.db	120
      0001CB 04                    4588 	.sleb128	4
      0001CC 00 00r07r47           4589 	.dw	0,(Sstm8s_uart1$UART1_ClearFlag$554)
      0001D0 00 00r07r49           4590 	.dw	0,(Sstm8s_uart1$UART1_ClearFlag$555)
      0001D4 00 02                 4591 	.dw	2
      0001D6 78                    4592 	.db	120
      0001D7 03                    4593 	.sleb128	3
      0001D8 00 00r07r45           4594 	.dw	0,(Sstm8s_uart1$UART1_ClearFlag$553)
      0001DC 00 00r07r47           4595 	.dw	0,(Sstm8s_uart1$UART1_ClearFlag$554)
      0001E0 00 02                 4596 	.dw	2
      0001E2 78                    4597 	.db	120
      0001E3 02                    4598 	.sleb128	2
      0001E4 00 00r07r44           4599 	.dw	0,(Sstm8s_uart1$UART1_ClearFlag$552)
      0001E8 00 00r07r45           4600 	.dw	0,(Sstm8s_uart1$UART1_ClearFlag$553)
      0001EC 00 02                 4601 	.dw	2
      0001EE 78                    4602 	.db	120
      0001EF 01                    4603 	.sleb128	1
      0001F0 00 00r07r36           4604 	.dw	0,(Sstm8s_uart1$UART1_ClearFlag$551)
      0001F4 00 00r07r44           4605 	.dw	0,(Sstm8s_uart1$UART1_ClearFlag$552)
      0001F8 00 02                 4606 	.dw	2
      0001FA 78                    4607 	.db	120
      0001FB 01                    4608 	.sleb128	1
      0001FC 00 00r07r29           4609 	.dw	0,(Sstm8s_uart1$UART1_ClearFlag$549)
      000200 00 00r07r36           4610 	.dw	0,(Sstm8s_uart1$UART1_ClearFlag$551)
      000204 00 02                 4611 	.dw	2
      000206 78                    4612 	.db	120
      000207 01                    4613 	.sleb128	1
      000208 00 00 00 00           4614 	.dw	0,0
      00020C 00 00 00 00           4615 	.dw	0,0
      000210 00 00r07r28           4616 	.dw	0,(Sstm8s_uart1$UART1_GetFlagStatus$545)
      000214 00 00r07r29           4617 	.dw	0,(Sstm8s_uart1$UART1_GetFlagStatus$547)
      000218 00 02                 4618 	.dw	2
      00021A 78                    4619 	.db	120
      00021B 01                    4620 	.sleb128	1
      00021C 00 00r06rE0           4621 	.dw	0,(Sstm8s_uart1$UART1_GetFlagStatus$516)
      000220 00 00r07r28           4622 	.dw	0,(Sstm8s_uart1$UART1_GetFlagStatus$545)
      000224 00 02                 4623 	.dw	2
      000226 78                    4624 	.db	120
      000227 03                    4625 	.sleb128	3
      000228 00 00r06rDB           4626 	.dw	0,(Sstm8s_uart1$UART1_GetFlagStatus$515)
      00022C 00 00r06rE0           4627 	.dw	0,(Sstm8s_uart1$UART1_GetFlagStatus$516)
      000230 00 02                 4628 	.dw	2
      000232 78                    4629 	.db	120
      000233 04                    4630 	.sleb128	4
      000234 00 00r06rDA           4631 	.dw	0,(Sstm8s_uart1$UART1_GetFlagStatus$513)
      000238 00 00r06rDB           4632 	.dw	0,(Sstm8s_uart1$UART1_GetFlagStatus$515)
      00023C 00 02                 4633 	.dw	2
      00023E 78                    4634 	.db	120
      00023F 03                    4635 	.sleb128	3
      000240 00 00r06rD9           4636 	.dw	0,(Sstm8s_uart1$UART1_GetFlagStatus$512)
      000244 00 00r06rDA           4637 	.dw	0,(Sstm8s_uart1$UART1_GetFlagStatus$513)
      000248 00 02                 4638 	.dw	2
      00024A 78                    4639 	.db	120
      00024B 04                    4640 	.sleb128	4
      00024C 00 00r06rD4           4641 	.dw	0,(Sstm8s_uart1$UART1_GetFlagStatus$511)
      000250 00 00r06rD9           4642 	.dw	0,(Sstm8s_uart1$UART1_GetFlagStatus$512)
      000254 00 02                 4643 	.dw	2
      000256 78                    4644 	.db	120
      000257 0A                    4645 	.sleb128	10
      000258 00 00r06rD2           4646 	.dw	0,(Sstm8s_uart1$UART1_GetFlagStatus$510)
      00025C 00 00r06rD4           4647 	.dw	0,(Sstm8s_uart1$UART1_GetFlagStatus$511)
      000260 00 02                 4648 	.dw	2
      000262 78                    4649 	.db	120
      000263 09                    4650 	.sleb128	9
      000264 00 00r06rD0           4651 	.dw	0,(Sstm8s_uart1$UART1_GetFlagStatus$509)
      000268 00 00r06rD2           4652 	.dw	0,(Sstm8s_uart1$UART1_GetFlagStatus$510)
      00026C 00 02                 4653 	.dw	2
      00026E 78                    4654 	.db	120
      00026F 08                    4655 	.sleb128	8
      000270 00 00r06rCE           4656 	.dw	0,(Sstm8s_uart1$UART1_GetFlagStatus$508)
      000274 00 00r06rD0           4657 	.dw	0,(Sstm8s_uart1$UART1_GetFlagStatus$509)
      000278 00 02                 4658 	.dw	2
      00027A 78                    4659 	.db	120
      00027B 06                    4660 	.sleb128	6
      00027C 00 00r06rCC           4661 	.dw	0,(Sstm8s_uart1$UART1_GetFlagStatus$507)
      000280 00 00r06rCE           4662 	.dw	0,(Sstm8s_uart1$UART1_GetFlagStatus$508)
      000284 00 02                 4663 	.dw	2
      000286 78                    4664 	.db	120
      000287 05                    4665 	.sleb128	5
      000288 00 00r06rCA           4666 	.dw	0,(Sstm8s_uart1$UART1_GetFlagStatus$506)
      00028C 00 00r06rCC           4667 	.dw	0,(Sstm8s_uart1$UART1_GetFlagStatus$507)
      000290 00 02                 4668 	.dw	2
      000292 78                    4669 	.db	120
      000293 04                    4670 	.sleb128	4
      000294 00 00r06rBC           4671 	.dw	0,(Sstm8s_uart1$UART1_GetFlagStatus$505)
      000298 00 00r06rCA           4672 	.dw	0,(Sstm8s_uart1$UART1_GetFlagStatus$506)
      00029C 00 02                 4673 	.dw	2
      00029E 78                    4674 	.db	120
      00029F 03                    4675 	.sleb128	3
      0002A0 00 00r06rB6           4676 	.dw	0,(Sstm8s_uart1$UART1_GetFlagStatus$504)
      0002A4 00 00r06rBC           4677 	.dw	0,(Sstm8s_uart1$UART1_GetFlagStatus$505)
      0002A8 00 02                 4678 	.dw	2
      0002AA 78                    4679 	.db	120
      0002AB 03                    4680 	.sleb128	3
      0002AC 00 00r06rAE           4681 	.dw	0,(Sstm8s_uart1$UART1_GetFlagStatus$503)
      0002B0 00 00r06rB6           4682 	.dw	0,(Sstm8s_uart1$UART1_GetFlagStatus$504)
      0002B4 00 02                 4683 	.dw	2
      0002B6 78                    4684 	.db	120
      0002B7 03                    4685 	.sleb128	3
      0002B8 00 00r06rA6           4686 	.dw	0,(Sstm8s_uart1$UART1_GetFlagStatus$502)
      0002BC 00 00r06rAE           4687 	.dw	0,(Sstm8s_uart1$UART1_GetFlagStatus$503)
      0002C0 00 02                 4688 	.dw	2
      0002C2 78                    4689 	.db	120
      0002C3 03                    4690 	.sleb128	3
      0002C4 00 00r06r9E           4691 	.dw	0,(Sstm8s_uart1$UART1_GetFlagStatus$501)
      0002C8 00 00r06rA6           4692 	.dw	0,(Sstm8s_uart1$UART1_GetFlagStatus$502)
      0002CC 00 02                 4693 	.dw	2
      0002CE 78                    4694 	.db	120
      0002CF 03                    4695 	.sleb128	3
      0002D0 00 00r06r96           4696 	.dw	0,(Sstm8s_uart1$UART1_GetFlagStatus$500)
      0002D4 00 00r06r9E           4697 	.dw	0,(Sstm8s_uart1$UART1_GetFlagStatus$501)
      0002D8 00 02                 4698 	.dw	2
      0002DA 78                    4699 	.db	120
      0002DB 03                    4700 	.sleb128	3
      0002DC 00 00r06r8E           4701 	.dw	0,(Sstm8s_uart1$UART1_GetFlagStatus$499)
      0002E0 00 00r06r96           4702 	.dw	0,(Sstm8s_uart1$UART1_GetFlagStatus$500)
      0002E4 00 02                 4703 	.dw	2
      0002E6 78                    4704 	.db	120
      0002E7 03                    4705 	.sleb128	3
      0002E8 00 00r06r86           4706 	.dw	0,(Sstm8s_uart1$UART1_GetFlagStatus$498)
      0002EC 00 00r06r8E           4707 	.dw	0,(Sstm8s_uart1$UART1_GetFlagStatus$499)
      0002F0 00 02                 4708 	.dw	2
      0002F2 78                    4709 	.db	120
      0002F3 03                    4710 	.sleb128	3
      0002F4 00 00r06r7E           4711 	.dw	0,(Sstm8s_uart1$UART1_GetFlagStatus$497)
      0002F8 00 00r06r86           4712 	.dw	0,(Sstm8s_uart1$UART1_GetFlagStatus$498)
      0002FC 00 02                 4713 	.dw	2
      0002FE 78                    4714 	.db	120
      0002FF 03                    4715 	.sleb128	3
      000300 00 00r06r73           4716 	.dw	0,(Sstm8s_uart1$UART1_GetFlagStatus$496)
      000304 00 00r06r7E           4717 	.dw	0,(Sstm8s_uart1$UART1_GetFlagStatus$497)
      000308 00 02                 4718 	.dw	2
      00030A 78                    4719 	.db	120
      00030B 03                    4720 	.sleb128	3
      00030C 00 00r06r63           4721 	.dw	0,(Sstm8s_uart1$UART1_GetFlagStatus$494)
      000310 00 00r06r73           4722 	.dw	0,(Sstm8s_uart1$UART1_GetFlagStatus$496)
      000314 00 02                 4723 	.dw	2
      000316 78                    4724 	.db	120
      000317 03                    4725 	.sleb128	3
      000318 00 00r06r62           4726 	.dw	0,(Sstm8s_uart1$UART1_GetFlagStatus$493)
      00031C 00 00r06r63           4727 	.dw	0,(Sstm8s_uart1$UART1_GetFlagStatus$494)
      000320 00 02                 4728 	.dw	2
      000322 78                    4729 	.db	120
      000323 01                    4730 	.sleb128	1
      000324 00 00 00 00           4731 	.dw	0,0
      000328 00 00 00 00           4732 	.dw	0,0
      00032C 00 00r06r5B           4733 	.dw	0,(Sstm8s_uart1$UART1_SetPrescaler$487)
      000330 00 00r06r62           4734 	.dw	0,(Sstm8s_uart1$UART1_SetPrescaler$491)
      000334 00 02                 4735 	.dw	2
      000336 78                    4736 	.db	120
      000337 01                    4737 	.sleb128	1
      000338 00 00 00 00           4738 	.dw	0,0
      00033C 00 00 00 00           4739 	.dw	0,0
      000340 00 00r06r54           4740 	.dw	0,(Sstm8s_uart1$UART1_SetGuardTime$481)
      000344 00 00r06r5B           4741 	.dw	0,(Sstm8s_uart1$UART1_SetGuardTime$485)
      000348 00 02                 4742 	.dw	2
      00034A 78                    4743 	.db	120
      00034B 01                    4744 	.sleb128	1
      00034C 00 00 00 00           4745 	.dw	0,0
      000350 00 00 00 00           4746 	.dw	0,0
      000354 00 00r06r43           4747 	.dw	0,(Sstm8s_uart1$UART1_SetAddress$474)
      000358 00 00r06r54           4748 	.dw	0,(Sstm8s_uart1$UART1_SetAddress$479)
      00035C 00 02                 4749 	.dw	2
      00035E 78                    4750 	.db	120
      00035F 01                    4751 	.sleb128	1
      000360 00 00r06r3E           4752 	.dw	0,(Sstm8s_uart1$UART1_SetAddress$473)
      000364 00 00r06r43           4753 	.dw	0,(Sstm8s_uart1$UART1_SetAddress$474)
      000368 00 02                 4754 	.dw	2
      00036A 78                    4755 	.db	120
      00036B 07                    4756 	.sleb128	7
      00036C 00 00r06r3C           4757 	.dw	0,(Sstm8s_uart1$UART1_SetAddress$472)
      000370 00 00r06r3E           4758 	.dw	0,(Sstm8s_uart1$UART1_SetAddress$473)
      000374 00 02                 4759 	.dw	2
      000376 78                    4760 	.db	120
      000377 06                    4761 	.sleb128	6
      000378 00 00r06r3A           4762 	.dw	0,(Sstm8s_uart1$UART1_SetAddress$471)
      00037C 00 00r06r3C           4763 	.dw	0,(Sstm8s_uart1$UART1_SetAddress$472)
      000380 00 02                 4764 	.dw	2
      000382 78                    4765 	.db	120
      000383 05                    4766 	.sleb128	5
      000384 00 00r06r38           4767 	.dw	0,(Sstm8s_uart1$UART1_SetAddress$470)
      000388 00 00r06r3A           4768 	.dw	0,(Sstm8s_uart1$UART1_SetAddress$471)
      00038C 00 02                 4769 	.dw	2
      00038E 78                    4770 	.db	120
      00038F 03                    4771 	.sleb128	3
      000390 00 00r06r36           4772 	.dw	0,(Sstm8s_uart1$UART1_SetAddress$469)
      000394 00 00r06r38           4773 	.dw	0,(Sstm8s_uart1$UART1_SetAddress$470)
      000398 00 02                 4774 	.dw	2
      00039A 78                    4775 	.db	120
      00039B 02                    4776 	.sleb128	2
      00039C 00 00r06r2B           4777 	.dw	0,(Sstm8s_uart1$UART1_SetAddress$467)
      0003A0 00 00r06r36           4778 	.dw	0,(Sstm8s_uart1$UART1_SetAddress$469)
      0003A4 00 02                 4779 	.dw	2
      0003A6 78                    4780 	.db	120
      0003A7 01                    4781 	.sleb128	1
      0003A8 00 00 00 00           4782 	.dw	0,0
      0003AC 00 00 00 00           4783 	.dw	0,0
      0003B0 00 00r06r22           4784 	.dw	0,(Sstm8s_uart1$UART1_SendBreak$461)
      0003B4 00 00r06r2B           4785 	.dw	0,(Sstm8s_uart1$UART1_SendBreak$465)
      0003B8 00 02                 4786 	.dw	2
      0003BA 78                    4787 	.db	120
      0003BB 01                    4788 	.sleb128	1
      0003BC 00 00 00 00           4789 	.dw	0,0
      0003C0 00 00 00 00           4790 	.dw	0,0
      0003C4 00 00r06r21           4791 	.dw	0,(Sstm8s_uart1$UART1_SendData9$457)
      0003C8 00 00r06r22           4792 	.dw	0,(Sstm8s_uart1$UART1_SendData9$459)
      0003CC 00 02                 4793 	.dw	2
      0003CE 78                    4794 	.db	120
      0003CF 01                    4795 	.sleb128	1
      0003D0 00 00r06r02           4796 	.dw	0,(Sstm8s_uart1$UART1_SendData9$452)
      0003D4 00 00r06r21           4797 	.dw	0,(Sstm8s_uart1$UART1_SendData9$457)
      0003D8 00 02                 4798 	.dw	2
      0003DA 78                    4799 	.db	120
      0003DB 02                    4800 	.sleb128	2
      0003DC 00 00r06r01           4801 	.dw	0,(Sstm8s_uart1$UART1_SendData9$451)
      0003E0 00 00r06r02           4802 	.dw	0,(Sstm8s_uart1$UART1_SendData9$452)
      0003E4 00 02                 4803 	.dw	2
      0003E6 78                    4804 	.db	120
      0003E7 01                    4805 	.sleb128	1
      0003E8 00 00 00 00           4806 	.dw	0,0
      0003EC 00 00 00 00           4807 	.dw	0,0
      0003F0 00 00r05rFA           4808 	.dw	0,(Sstm8s_uart1$UART1_SendData8$445)
      0003F4 00 00r06r01           4809 	.dw	0,(Sstm8s_uart1$UART1_SendData8$449)
      0003F8 00 02                 4810 	.dw	2
      0003FA 78                    4811 	.db	120
      0003FB 01                    4812 	.sleb128	1
      0003FC 00 00 00 00           4813 	.dw	0,0
      000400 00 00 00 00           4814 	.dw	0,0
      000404 00 00r05rF9           4815 	.dw	0,(Sstm8s_uart1$UART1_ReceiveData9$441)
      000408 00 00r05rFA           4816 	.dw	0,(Sstm8s_uart1$UART1_ReceiveData9$443)
      00040C 00 02                 4817 	.dw	2
      00040E 78                    4818 	.db	120
      00040F 01                    4819 	.sleb128	1
      000410 00 00r05rDE           4820 	.dw	0,(Sstm8s_uart1$UART1_ReceiveData9$437)
      000414 00 00r05rF9           4821 	.dw	0,(Sstm8s_uart1$UART1_ReceiveData9$441)
      000418 00 02                 4822 	.dw	2
      00041A 78                    4823 	.db	120
      00041B 03                    4824 	.sleb128	3
      00041C 00 00r05rDD           4825 	.dw	0,(Sstm8s_uart1$UART1_ReceiveData9$436)
      000420 00 00r05rDE           4826 	.dw	0,(Sstm8s_uart1$UART1_ReceiveData9$437)
      000424 00 02                 4827 	.dw	2
      000426 78                    4828 	.db	120
      000427 01                    4829 	.sleb128	1
      000428 00 00 00 00           4830 	.dw	0,0
      00042C 00 00 00 00           4831 	.dw	0,0
      000430 00 00r05rD9           4832 	.dw	0,(Sstm8s_uart1$UART1_ReceiveData8$430)
      000434 00 00r05rDD           4833 	.dw	0,(Sstm8s_uart1$UART1_ReceiveData8$434)
      000438 00 02                 4834 	.dw	2
      00043A 78                    4835 	.db	120
      00043B 01                    4836 	.sleb128	1
      00043C 00 00 00 00           4837 	.dw	0,0
      000440 00 00 00 00           4838 	.dw	0,0
      000444 00 00r05rC1           4839 	.dw	0,(Sstm8s_uart1$UART1_ReceiverWakeUpCmd$417)
      000448 00 00r05rD9           4840 	.dw	0,(Sstm8s_uart1$UART1_ReceiverWakeUpCmd$428)
      00044C 00 02                 4841 	.dw	2
      00044E 78                    4842 	.db	120
      00044F 01                    4843 	.sleb128	1
      000450 00 00r05rBC           4844 	.dw	0,(Sstm8s_uart1$UART1_ReceiverWakeUpCmd$416)
      000454 00 00r05rC1           4845 	.dw	0,(Sstm8s_uart1$UART1_ReceiverWakeUpCmd$417)
      000458 00 02                 4846 	.dw	2
      00045A 78                    4847 	.db	120
      00045B 07                    4848 	.sleb128	7
      00045C 00 00r05rBA           4849 	.dw	0,(Sstm8s_uart1$UART1_ReceiverWakeUpCmd$415)
      000460 00 00r05rBC           4850 	.dw	0,(Sstm8s_uart1$UART1_ReceiverWakeUpCmd$416)
      000464 00 02                 4851 	.dw	2
      000466 78                    4852 	.db	120
      000467 06                    4853 	.sleb128	6
      000468 00 00r05rB8           4854 	.dw	0,(Sstm8s_uart1$UART1_ReceiverWakeUpCmd$414)
      00046C 00 00r05rBA           4855 	.dw	0,(Sstm8s_uart1$UART1_ReceiverWakeUpCmd$415)
      000470 00 02                 4856 	.dw	2
      000472 78                    4857 	.db	120
      000473 05                    4858 	.sleb128	5
      000474 00 00r05rB6           4859 	.dw	0,(Sstm8s_uart1$UART1_ReceiverWakeUpCmd$413)
      000478 00 00r05rB8           4860 	.dw	0,(Sstm8s_uart1$UART1_ReceiverWakeUpCmd$414)
      00047C 00 02                 4861 	.dw	2
      00047E 78                    4862 	.db	120
      00047F 03                    4863 	.sleb128	3
      000480 00 00r05rB4           4864 	.dw	0,(Sstm8s_uart1$UART1_ReceiverWakeUpCmd$412)
      000484 00 00r05rB6           4865 	.dw	0,(Sstm8s_uart1$UART1_ReceiverWakeUpCmd$413)
      000488 00 02                 4866 	.dw	2
      00048A 78                    4867 	.db	120
      00048B 02                    4868 	.sleb128	2
      00048C 00 00r05rB2           4869 	.dw	0,(Sstm8s_uart1$UART1_ReceiverWakeUpCmd$411)
      000490 00 00r05rB4           4870 	.dw	0,(Sstm8s_uart1$UART1_ReceiverWakeUpCmd$412)
      000494 00 02                 4871 	.dw	2
      000496 78                    4872 	.db	120
      000497 01                    4873 	.sleb128	1
      000498 00 00r05rA3           4874 	.dw	0,(Sstm8s_uart1$UART1_ReceiverWakeUpCmd$409)
      00049C 00 00r05rB2           4875 	.dw	0,(Sstm8s_uart1$UART1_ReceiverWakeUpCmd$411)
      0004A0 00 02                 4876 	.dw	2
      0004A2 78                    4877 	.db	120
      0004A3 01                    4878 	.sleb128	1
      0004A4 00 00 00 00           4879 	.dw	0,0
      0004A8 00 00 00 00           4880 	.dw	0,0
      0004AC 00 00r05r92           4881 	.dw	0,(Sstm8s_uart1$UART1_WakeUpConfig$402)
      0004B0 00 00r05rA3           4882 	.dw	0,(Sstm8s_uart1$UART1_WakeUpConfig$407)
      0004B4 00 02                 4883 	.dw	2
      0004B6 78                    4884 	.db	120
      0004B7 01                    4885 	.sleb128	1
      0004B8 00 00r05r8D           4886 	.dw	0,(Sstm8s_uart1$UART1_WakeUpConfig$401)
      0004BC 00 00r05r92           4887 	.dw	0,(Sstm8s_uart1$UART1_WakeUpConfig$402)
      0004C0 00 02                 4888 	.dw	2
      0004C2 78                    4889 	.db	120
      0004C3 07                    4890 	.sleb128	7
      0004C4 00 00r05r8B           4891 	.dw	0,(Sstm8s_uart1$UART1_WakeUpConfig$400)
      0004C8 00 00r05r8D           4892 	.dw	0,(Sstm8s_uart1$UART1_WakeUpConfig$401)
      0004CC 00 02                 4893 	.dw	2
      0004CE 78                    4894 	.db	120
      0004CF 06                    4895 	.sleb128	6
      0004D0 00 00r05r89           4896 	.dw	0,(Sstm8s_uart1$UART1_WakeUpConfig$399)
      0004D4 00 00r05r8B           4897 	.dw	0,(Sstm8s_uart1$UART1_WakeUpConfig$400)
      0004D8 00 02                 4898 	.dw	2
      0004DA 78                    4899 	.db	120
      0004DB 05                    4900 	.sleb128	5
      0004DC 00 00r05r87           4901 	.dw	0,(Sstm8s_uart1$UART1_WakeUpConfig$398)
      0004E0 00 00r05r89           4902 	.dw	0,(Sstm8s_uart1$UART1_WakeUpConfig$399)
      0004E4 00 02                 4903 	.dw	2
      0004E6 78                    4904 	.db	120
      0004E7 03                    4905 	.sleb128	3
      0004E8 00 00r05r85           4906 	.dw	0,(Sstm8s_uart1$UART1_WakeUpConfig$397)
      0004EC 00 00r05r87           4907 	.dw	0,(Sstm8s_uart1$UART1_WakeUpConfig$398)
      0004F0 00 02                 4908 	.dw	2
      0004F2 78                    4909 	.db	120
      0004F3 02                    4910 	.sleb128	2
      0004F4 00 00r05r83           4911 	.dw	0,(Sstm8s_uart1$UART1_WakeUpConfig$396)
      0004F8 00 00r05r85           4912 	.dw	0,(Sstm8s_uart1$UART1_WakeUpConfig$397)
      0004FC 00 02                 4913 	.dw	2
      0004FE 78                    4914 	.db	120
      0004FF 01                    4915 	.sleb128	1
      000500 00 00r05r73           4916 	.dw	0,(Sstm8s_uart1$UART1_WakeUpConfig$394)
      000504 00 00r05r83           4917 	.dw	0,(Sstm8s_uart1$UART1_WakeUpConfig$396)
      000508 00 02                 4918 	.dw	2
      00050A 78                    4919 	.db	120
      00050B 01                    4920 	.sleb128	1
      00050C 00 00 00 00           4921 	.dw	0,0
      000510 00 00 00 00           4922 	.dw	0,0
      000514 00 00r05r5B           4923 	.dw	0,(Sstm8s_uart1$UART1_SmartCardNACKCmd$381)
      000518 00 00r05r73           4924 	.dw	0,(Sstm8s_uart1$UART1_SmartCardNACKCmd$392)
      00051C 00 02                 4925 	.dw	2
      00051E 78                    4926 	.db	120
      00051F 01                    4927 	.sleb128	1
      000520 00 00r05r56           4928 	.dw	0,(Sstm8s_uart1$UART1_SmartCardNACKCmd$380)
      000524 00 00r05r5B           4929 	.dw	0,(Sstm8s_uart1$UART1_SmartCardNACKCmd$381)
      000528 00 02                 4930 	.dw	2
      00052A 78                    4931 	.db	120
      00052B 07                    4932 	.sleb128	7
      00052C 00 00r05r54           4933 	.dw	0,(Sstm8s_uart1$UART1_SmartCardNACKCmd$379)
      000530 00 00r05r56           4934 	.dw	0,(Sstm8s_uart1$UART1_SmartCardNACKCmd$380)
      000534 00 02                 4935 	.dw	2
      000536 78                    4936 	.db	120
      000537 06                    4937 	.sleb128	6
      000538 00 00r05r52           4938 	.dw	0,(Sstm8s_uart1$UART1_SmartCardNACKCmd$378)
      00053C 00 00r05r54           4939 	.dw	0,(Sstm8s_uart1$UART1_SmartCardNACKCmd$379)
      000540 00 02                 4940 	.dw	2
      000542 78                    4941 	.db	120
      000543 05                    4942 	.sleb128	5
      000544 00 00r05r50           4943 	.dw	0,(Sstm8s_uart1$UART1_SmartCardNACKCmd$377)
      000548 00 00r05r52           4944 	.dw	0,(Sstm8s_uart1$UART1_SmartCardNACKCmd$378)
      00054C 00 02                 4945 	.dw	2
      00054E 78                    4946 	.db	120
      00054F 03                    4947 	.sleb128	3
      000550 00 00r05r4E           4948 	.dw	0,(Sstm8s_uart1$UART1_SmartCardNACKCmd$376)
      000554 00 00r05r50           4949 	.dw	0,(Sstm8s_uart1$UART1_SmartCardNACKCmd$377)
      000558 00 02                 4950 	.dw	2
      00055A 78                    4951 	.db	120
      00055B 02                    4952 	.sleb128	2
      00055C 00 00r05r4C           4953 	.dw	0,(Sstm8s_uart1$UART1_SmartCardNACKCmd$375)
      000560 00 00r05r4E           4954 	.dw	0,(Sstm8s_uart1$UART1_SmartCardNACKCmd$376)
      000564 00 02                 4955 	.dw	2
      000566 78                    4956 	.db	120
      000567 01                    4957 	.sleb128	1
      000568 00 00r05r3D           4958 	.dw	0,(Sstm8s_uart1$UART1_SmartCardNACKCmd$373)
      00056C 00 00r05r4C           4959 	.dw	0,(Sstm8s_uart1$UART1_SmartCardNACKCmd$375)
      000570 00 02                 4960 	.dw	2
      000572 78                    4961 	.db	120
      000573 01                    4962 	.sleb128	1
      000574 00 00 00 00           4963 	.dw	0,0
      000578 00 00 00 00           4964 	.dw	0,0
      00057C 00 00r05r25           4965 	.dw	0,(Sstm8s_uart1$UART1_SmartCardCmd$360)
      000580 00 00r05r3D           4966 	.dw	0,(Sstm8s_uart1$UART1_SmartCardCmd$371)
      000584 00 02                 4967 	.dw	2
      000586 78                    4968 	.db	120
      000587 01                    4969 	.sleb128	1
      000588 00 00r05r20           4970 	.dw	0,(Sstm8s_uart1$UART1_SmartCardCmd$359)
      00058C 00 00r05r25           4971 	.dw	0,(Sstm8s_uart1$UART1_SmartCardCmd$360)
      000590 00 02                 4972 	.dw	2
      000592 78                    4973 	.db	120
      000593 07                    4974 	.sleb128	7
      000594 00 00r05r1E           4975 	.dw	0,(Sstm8s_uart1$UART1_SmartCardCmd$358)
      000598 00 00r05r20           4976 	.dw	0,(Sstm8s_uart1$UART1_SmartCardCmd$359)
      00059C 00 02                 4977 	.dw	2
      00059E 78                    4978 	.db	120
      00059F 06                    4979 	.sleb128	6
      0005A0 00 00r05r1C           4980 	.dw	0,(Sstm8s_uart1$UART1_SmartCardCmd$357)
      0005A4 00 00r05r1E           4981 	.dw	0,(Sstm8s_uart1$UART1_SmartCardCmd$358)
      0005A8 00 02                 4982 	.dw	2
      0005AA 78                    4983 	.db	120
      0005AB 05                    4984 	.sleb128	5
      0005AC 00 00r05r1A           4985 	.dw	0,(Sstm8s_uart1$UART1_SmartCardCmd$356)
      0005B0 00 00r05r1C           4986 	.dw	0,(Sstm8s_uart1$UART1_SmartCardCmd$357)
      0005B4 00 02                 4987 	.dw	2
      0005B6 78                    4988 	.db	120
      0005B7 03                    4989 	.sleb128	3
      0005B8 00 00r05r18           4990 	.dw	0,(Sstm8s_uart1$UART1_SmartCardCmd$355)
      0005BC 00 00r05r1A           4991 	.dw	0,(Sstm8s_uart1$UART1_SmartCardCmd$356)
      0005C0 00 02                 4992 	.dw	2
      0005C2 78                    4993 	.db	120
      0005C3 02                    4994 	.sleb128	2
      0005C4 00 00r05r16           4995 	.dw	0,(Sstm8s_uart1$UART1_SmartCardCmd$354)
      0005C8 00 00r05r18           4996 	.dw	0,(Sstm8s_uart1$UART1_SmartCardCmd$355)
      0005CC 00 02                 4997 	.dw	2
      0005CE 78                    4998 	.db	120
      0005CF 01                    4999 	.sleb128	1
      0005D0 00 00r05r07           5000 	.dw	0,(Sstm8s_uart1$UART1_SmartCardCmd$352)
      0005D4 00 00r05r16           5001 	.dw	0,(Sstm8s_uart1$UART1_SmartCardCmd$354)
      0005D8 00 02                 5002 	.dw	2
      0005DA 78                    5003 	.db	120
      0005DB 01                    5004 	.sleb128	1
      0005DC 00 00 00 00           5005 	.dw	0,0
      0005E0 00 00 00 00           5006 	.dw	0,0
      0005E4 00 00r04rEF           5007 	.dw	0,(Sstm8s_uart1$UART1_LINCmd$339)
      0005E8 00 00r05r07           5008 	.dw	0,(Sstm8s_uart1$UART1_LINCmd$350)
      0005EC 00 02                 5009 	.dw	2
      0005EE 78                    5010 	.db	120
      0005EF 01                    5011 	.sleb128	1
      0005F0 00 00r04rEA           5012 	.dw	0,(Sstm8s_uart1$UART1_LINCmd$338)
      0005F4 00 00r04rEF           5013 	.dw	0,(Sstm8s_uart1$UART1_LINCmd$339)
      0005F8 00 02                 5014 	.dw	2
      0005FA 78                    5015 	.db	120
      0005FB 07                    5016 	.sleb128	7
      0005FC 00 00r04rE8           5017 	.dw	0,(Sstm8s_uart1$UART1_LINCmd$337)
      000600 00 00r04rEA           5018 	.dw	0,(Sstm8s_uart1$UART1_LINCmd$338)
      000604 00 02                 5019 	.dw	2
      000606 78                    5020 	.db	120
      000607 06                    5021 	.sleb128	6
      000608 00 00r04rE6           5022 	.dw	0,(Sstm8s_uart1$UART1_LINCmd$336)
      00060C 00 00r04rE8           5023 	.dw	0,(Sstm8s_uart1$UART1_LINCmd$337)
      000610 00 02                 5024 	.dw	2
      000612 78                    5025 	.db	120
      000613 05                    5026 	.sleb128	5
      000614 00 00r04rE4           5027 	.dw	0,(Sstm8s_uart1$UART1_LINCmd$335)
      000618 00 00r04rE6           5028 	.dw	0,(Sstm8s_uart1$UART1_LINCmd$336)
      00061C 00 02                 5029 	.dw	2
      00061E 78                    5030 	.db	120
      00061F 03                    5031 	.sleb128	3
      000620 00 00r04rE2           5032 	.dw	0,(Sstm8s_uart1$UART1_LINCmd$334)
      000624 00 00r04rE4           5033 	.dw	0,(Sstm8s_uart1$UART1_LINCmd$335)
      000628 00 02                 5034 	.dw	2
      00062A 78                    5035 	.db	120
      00062B 02                    5036 	.sleb128	2
      00062C 00 00r04rE0           5037 	.dw	0,(Sstm8s_uart1$UART1_LINCmd$333)
      000630 00 00r04rE2           5038 	.dw	0,(Sstm8s_uart1$UART1_LINCmd$334)
      000634 00 02                 5039 	.dw	2
      000636 78                    5040 	.db	120
      000637 01                    5041 	.sleb128	1
      000638 00 00r04rD1           5042 	.dw	0,(Sstm8s_uart1$UART1_LINCmd$331)
      00063C 00 00r04rE0           5043 	.dw	0,(Sstm8s_uart1$UART1_LINCmd$333)
      000640 00 02                 5044 	.dw	2
      000642 78                    5045 	.db	120
      000643 01                    5046 	.sleb128	1
      000644 00 00 00 00           5047 	.dw	0,0
      000648 00 00 00 00           5048 	.dw	0,0
      00064C 00 00r04rB9           5049 	.dw	0,(Sstm8s_uart1$UART1_LINBreakDetectionConfig$318)
      000650 00 00r04rD1           5050 	.dw	0,(Sstm8s_uart1$UART1_LINBreakDetectionConfig$329)
      000654 00 02                 5051 	.dw	2
      000656 78                    5052 	.db	120
      000657 01                    5053 	.sleb128	1
      000658 00 00r04rB4           5054 	.dw	0,(Sstm8s_uart1$UART1_LINBreakDetectionConfig$317)
      00065C 00 00r04rB9           5055 	.dw	0,(Sstm8s_uart1$UART1_LINBreakDetectionConfig$318)
      000660 00 02                 5056 	.dw	2
      000662 78                    5057 	.db	120
      000663 07                    5058 	.sleb128	7
      000664 00 00r04rB2           5059 	.dw	0,(Sstm8s_uart1$UART1_LINBreakDetectionConfig$316)
      000668 00 00r04rB4           5060 	.dw	0,(Sstm8s_uart1$UART1_LINBreakDetectionConfig$317)
      00066C 00 02                 5061 	.dw	2
      00066E 78                    5062 	.db	120
      00066F 06                    5063 	.sleb128	6
      000670 00 00r04rB0           5064 	.dw	0,(Sstm8s_uart1$UART1_LINBreakDetectionConfig$315)
      000674 00 00r04rB2           5065 	.dw	0,(Sstm8s_uart1$UART1_LINBreakDetectionConfig$316)
      000678 00 02                 5066 	.dw	2
      00067A 78                    5067 	.db	120
      00067B 05                    5068 	.sleb128	5
      00067C 00 00r04rAE           5069 	.dw	0,(Sstm8s_uart1$UART1_LINBreakDetectionConfig$314)
      000680 00 00r04rB0           5070 	.dw	0,(Sstm8s_uart1$UART1_LINBreakDetectionConfig$315)
      000684 00 02                 5071 	.dw	2
      000686 78                    5072 	.db	120
      000687 03                    5073 	.sleb128	3
      000688 00 00r04rAC           5074 	.dw	0,(Sstm8s_uart1$UART1_LINBreakDetectionConfig$313)
      00068C 00 00r04rAE           5075 	.dw	0,(Sstm8s_uart1$UART1_LINBreakDetectionConfig$314)
      000690 00 02                 5076 	.dw	2
      000692 78                    5077 	.db	120
      000693 02                    5078 	.sleb128	2
      000694 00 00r04rAA           5079 	.dw	0,(Sstm8s_uart1$UART1_LINBreakDetectionConfig$312)
      000698 00 00r04rAC           5080 	.dw	0,(Sstm8s_uart1$UART1_LINBreakDetectionConfig$313)
      00069C 00 02                 5081 	.dw	2
      00069E 78                    5082 	.db	120
      00069F 01                    5083 	.sleb128	1
      0006A0 00 00r04r9B           5084 	.dw	0,(Sstm8s_uart1$UART1_LINBreakDetectionConfig$310)
      0006A4 00 00r04rAA           5085 	.dw	0,(Sstm8s_uart1$UART1_LINBreakDetectionConfig$312)
      0006A8 00 02                 5086 	.dw	2
      0006AA 78                    5087 	.db	120
      0006AB 01                    5088 	.sleb128	1
      0006AC 00 00 00 00           5089 	.dw	0,0
      0006B0 00 00 00 00           5090 	.dw	0,0
      0006B4 00 00r04r83           5091 	.dw	0,(Sstm8s_uart1$UART1_IrDACmd$297)
      0006B8 00 00r04r9B           5092 	.dw	0,(Sstm8s_uart1$UART1_IrDACmd$308)
      0006BC 00 02                 5093 	.dw	2
      0006BE 78                    5094 	.db	120
      0006BF 01                    5095 	.sleb128	1
      0006C0 00 00r04r7E           5096 	.dw	0,(Sstm8s_uart1$UART1_IrDACmd$296)
      0006C4 00 00r04r83           5097 	.dw	0,(Sstm8s_uart1$UART1_IrDACmd$297)
      0006C8 00 02                 5098 	.dw	2
      0006CA 78                    5099 	.db	120
      0006CB 07                    5100 	.sleb128	7
      0006CC 00 00r04r7C           5101 	.dw	0,(Sstm8s_uart1$UART1_IrDACmd$295)
      0006D0 00 00r04r7E           5102 	.dw	0,(Sstm8s_uart1$UART1_IrDACmd$296)
      0006D4 00 02                 5103 	.dw	2
      0006D6 78                    5104 	.db	120
      0006D7 06                    5105 	.sleb128	6
      0006D8 00 00r04r7A           5106 	.dw	0,(Sstm8s_uart1$UART1_IrDACmd$294)
      0006DC 00 00r04r7C           5107 	.dw	0,(Sstm8s_uart1$UART1_IrDACmd$295)
      0006E0 00 02                 5108 	.dw	2
      0006E2 78                    5109 	.db	120
      0006E3 05                    5110 	.sleb128	5
      0006E4 00 00r04r78           5111 	.dw	0,(Sstm8s_uart1$UART1_IrDACmd$293)
      0006E8 00 00r04r7A           5112 	.dw	0,(Sstm8s_uart1$UART1_IrDACmd$294)
      0006EC 00 02                 5113 	.dw	2
      0006EE 78                    5114 	.db	120
      0006EF 03                    5115 	.sleb128	3
      0006F0 00 00r04r76           5116 	.dw	0,(Sstm8s_uart1$UART1_IrDACmd$292)
      0006F4 00 00r04r78           5117 	.dw	0,(Sstm8s_uart1$UART1_IrDACmd$293)
      0006F8 00 02                 5118 	.dw	2
      0006FA 78                    5119 	.db	120
      0006FB 02                    5120 	.sleb128	2
      0006FC 00 00r04r74           5121 	.dw	0,(Sstm8s_uart1$UART1_IrDACmd$291)
      000700 00 00r04r76           5122 	.dw	0,(Sstm8s_uart1$UART1_IrDACmd$292)
      000704 00 02                 5123 	.dw	2
      000706 78                    5124 	.db	120
      000707 01                    5125 	.sleb128	1
      000708 00 00r04r65           5126 	.dw	0,(Sstm8s_uart1$UART1_IrDACmd$289)
      00070C 00 00r04r74           5127 	.dw	0,(Sstm8s_uart1$UART1_IrDACmd$291)
      000710 00 02                 5128 	.dw	2
      000712 78                    5129 	.db	120
      000713 01                    5130 	.sleb128	1
      000714 00 00 00 00           5131 	.dw	0,0
      000718 00 00 00 00           5132 	.dw	0,0
      00071C 00 00r04r4D           5133 	.dw	0,(Sstm8s_uart1$UART1_IrDAConfig$276)
      000720 00 00r04r65           5134 	.dw	0,(Sstm8s_uart1$UART1_IrDAConfig$287)
      000724 00 02                 5135 	.dw	2
      000726 78                    5136 	.db	120
      000727 01                    5137 	.sleb128	1
      000728 00 00r04r48           5138 	.dw	0,(Sstm8s_uart1$UART1_IrDAConfig$275)
      00072C 00 00r04r4D           5139 	.dw	0,(Sstm8s_uart1$UART1_IrDAConfig$276)
      000730 00 02                 5140 	.dw	2
      000732 78                    5141 	.db	120
      000733 07                    5142 	.sleb128	7
      000734 00 00r04r46           5143 	.dw	0,(Sstm8s_uart1$UART1_IrDAConfig$274)
      000738 00 00r04r48           5144 	.dw	0,(Sstm8s_uart1$UART1_IrDAConfig$275)
      00073C 00 02                 5145 	.dw	2
      00073E 78                    5146 	.db	120
      00073F 06                    5147 	.sleb128	6
      000740 00 00r04r44           5148 	.dw	0,(Sstm8s_uart1$UART1_IrDAConfig$273)
      000744 00 00r04r46           5149 	.dw	0,(Sstm8s_uart1$UART1_IrDAConfig$274)
      000748 00 02                 5150 	.dw	2
      00074A 78                    5151 	.db	120
      00074B 05                    5152 	.sleb128	5
      00074C 00 00r04r42           5153 	.dw	0,(Sstm8s_uart1$UART1_IrDAConfig$272)
      000750 00 00r04r44           5154 	.dw	0,(Sstm8s_uart1$UART1_IrDAConfig$273)
      000754 00 02                 5155 	.dw	2
      000756 78                    5156 	.db	120
      000757 03                    5157 	.sleb128	3
      000758 00 00r04r40           5158 	.dw	0,(Sstm8s_uart1$UART1_IrDAConfig$271)
      00075C 00 00r04r42           5159 	.dw	0,(Sstm8s_uart1$UART1_IrDAConfig$272)
      000760 00 02                 5160 	.dw	2
      000762 78                    5161 	.db	120
      000763 02                    5162 	.sleb128	2
      000764 00 00r04r37           5163 	.dw	0,(Sstm8s_uart1$UART1_IrDAConfig$270)
      000768 00 00r04r40           5164 	.dw	0,(Sstm8s_uart1$UART1_IrDAConfig$271)
      00076C 00 02                 5165 	.dw	2
      00076E 78                    5166 	.db	120
      00076F 01                    5167 	.sleb128	1
      000770 00 00r04r2F           5168 	.dw	0,(Sstm8s_uart1$UART1_IrDAConfig$268)
      000774 00 00r04r37           5169 	.dw	0,(Sstm8s_uart1$UART1_IrDAConfig$270)
      000778 00 02                 5170 	.dw	2
      00077A 78                    5171 	.db	120
      00077B 01                    5172 	.sleb128	1
      00077C 00 00 00 00           5173 	.dw	0,0
      000780 00 00 00 00           5174 	.dw	0,0
      000784 00 00r04r17           5175 	.dw	0,(Sstm8s_uart1$UART1_HalfDuplexCmd$255)
      000788 00 00r04r2F           5176 	.dw	0,(Sstm8s_uart1$UART1_HalfDuplexCmd$266)
      00078C 00 02                 5177 	.dw	2
      00078E 78                    5178 	.db	120
      00078F 01                    5179 	.sleb128	1
      000790 00 00r04r12           5180 	.dw	0,(Sstm8s_uart1$UART1_HalfDuplexCmd$254)
      000794 00 00r04r17           5181 	.dw	0,(Sstm8s_uart1$UART1_HalfDuplexCmd$255)
      000798 00 02                 5182 	.dw	2
      00079A 78                    5183 	.db	120
      00079B 07                    5184 	.sleb128	7
      00079C 00 00r04r10           5185 	.dw	0,(Sstm8s_uart1$UART1_HalfDuplexCmd$253)
      0007A0 00 00r04r12           5186 	.dw	0,(Sstm8s_uart1$UART1_HalfDuplexCmd$254)
      0007A4 00 02                 5187 	.dw	2
      0007A6 78                    5188 	.db	120
      0007A7 06                    5189 	.sleb128	6
      0007A8 00 00r04r0E           5190 	.dw	0,(Sstm8s_uart1$UART1_HalfDuplexCmd$252)
      0007AC 00 00r04r10           5191 	.dw	0,(Sstm8s_uart1$UART1_HalfDuplexCmd$253)
      0007B0 00 02                 5192 	.dw	2
      0007B2 78                    5193 	.db	120
      0007B3 05                    5194 	.sleb128	5
      0007B4 00 00r04r0C           5195 	.dw	0,(Sstm8s_uart1$UART1_HalfDuplexCmd$251)
      0007B8 00 00r04r0E           5196 	.dw	0,(Sstm8s_uart1$UART1_HalfDuplexCmd$252)
      0007BC 00 02                 5197 	.dw	2
      0007BE 78                    5198 	.db	120
      0007BF 03                    5199 	.sleb128	3
      0007C0 00 00r04r0A           5200 	.dw	0,(Sstm8s_uart1$UART1_HalfDuplexCmd$250)
      0007C4 00 00r04r0C           5201 	.dw	0,(Sstm8s_uart1$UART1_HalfDuplexCmd$251)
      0007C8 00 02                 5202 	.dw	2
      0007CA 78                    5203 	.db	120
      0007CB 02                    5204 	.sleb128	2
      0007CC 00 00r04r08           5205 	.dw	0,(Sstm8s_uart1$UART1_HalfDuplexCmd$249)
      0007D0 00 00r04r0A           5206 	.dw	0,(Sstm8s_uart1$UART1_HalfDuplexCmd$250)
      0007D4 00 02                 5207 	.dw	2
      0007D6 78                    5208 	.db	120
      0007D7 01                    5209 	.sleb128	1
      0007D8 00 00r03rF9           5210 	.dw	0,(Sstm8s_uart1$UART1_HalfDuplexCmd$247)
      0007DC 00 00r04r08           5211 	.dw	0,(Sstm8s_uart1$UART1_HalfDuplexCmd$249)
      0007E0 00 02                 5212 	.dw	2
      0007E2 78                    5213 	.db	120
      0007E3 01                    5214 	.sleb128	1
      0007E4 00 00 00 00           5215 	.dw	0,0
      0007E8 00 00 00 00           5216 	.dw	0,0
      0007EC 00 00r03rF8           5217 	.dw	0,(Sstm8s_uart1$UART1_ITConfig$243)
      0007F0 00 00r03rF9           5218 	.dw	0,(Sstm8s_uart1$UART1_ITConfig$245)
      0007F4 00 02                 5219 	.dw	2
      0007F6 78                    5220 	.db	120
      0007F7 01                    5221 	.sleb128	1
      0007F8 00 00r03rCC           5222 	.dw	0,(Sstm8s_uart1$UART1_ITConfig$229)
      0007FC 00 00r03rF8           5223 	.dw	0,(Sstm8s_uart1$UART1_ITConfig$243)
      000800 00 02                 5224 	.dw	2
      000802 78                    5225 	.db	120
      000803 03                    5226 	.sleb128	3
      000804 00 00r03rC9           5227 	.dw	0,(Sstm8s_uart1$UART1_ITConfig$228)
      000808 00 00r03rCC           5228 	.dw	0,(Sstm8s_uart1$UART1_ITConfig$229)
      00080C 00 02                 5229 	.dw	2
      00080E 78                    5230 	.db	120
      00080F 04                    5231 	.sleb128	4
      000810 00 00r03r93           5232 	.dw	0,(Sstm8s_uart1$UART1_ITConfig$213)
      000814 00 00r03rC9           5233 	.dw	0,(Sstm8s_uart1$UART1_ITConfig$228)
      000818 00 02                 5234 	.dw	2
      00081A 78                    5235 	.db	120
      00081B 03                    5236 	.sleb128	3
      00081C 00 00r03r88           5237 	.dw	0,(Sstm8s_uart1$UART1_ITConfig$211)
      000820 00 00r03r93           5238 	.dw	0,(Sstm8s_uart1$UART1_ITConfig$213)
      000824 00 02                 5239 	.dw	2
      000826 78                    5240 	.db	120
      000827 03                    5241 	.sleb128	3
      000828 00 00r03r73           5242 	.dw	0,(Sstm8s_uart1$UART1_ITConfig$209)
      00082C 00 00r03r88           5243 	.dw	0,(Sstm8s_uart1$UART1_ITConfig$211)
      000830 00 02                 5244 	.dw	2
      000832 78                    5245 	.db	120
      000833 03                    5246 	.sleb128	3
      000834 00 00r03r6E           5247 	.dw	0,(Sstm8s_uart1$UART1_ITConfig$208)
      000838 00 00r03r73           5248 	.dw	0,(Sstm8s_uart1$UART1_ITConfig$209)
      00083C 00 02                 5249 	.dw	2
      00083E 78                    5250 	.db	120
      00083F 04                    5251 	.sleb128	4
      000840 00 00r03r68           5252 	.dw	0,(Sstm8s_uart1$UART1_ITConfig$205)
      000844 00 00r03r6E           5253 	.dw	0,(Sstm8s_uart1$UART1_ITConfig$208)
      000848 00 02                 5254 	.dw	2
      00084A 78                    5255 	.db	120
      00084B 03                    5256 	.sleb128	3
      00084C 00 00r03r67           5257 	.dw	0,(Sstm8s_uart1$UART1_ITConfig$204)
      000850 00 00r03r68           5258 	.dw	0,(Sstm8s_uart1$UART1_ITConfig$205)
      000854 00 02                 5259 	.dw	2
      000856 78                    5260 	.db	120
      000857 05                    5261 	.sleb128	5
      000858 00 00r03r62           5262 	.dw	0,(Sstm8s_uart1$UART1_ITConfig$203)
      00085C 00 00r03r67           5263 	.dw	0,(Sstm8s_uart1$UART1_ITConfig$204)
      000860 00 02                 5264 	.dw	2
      000862 78                    5265 	.db	120
      000863 0B                    5266 	.sleb128	11
      000864 00 00r03r60           5267 	.dw	0,(Sstm8s_uart1$UART1_ITConfig$202)
      000868 00 00r03r62           5268 	.dw	0,(Sstm8s_uart1$UART1_ITConfig$203)
      00086C 00 02                 5269 	.dw	2
      00086E 78                    5270 	.db	120
      00086F 0A                    5271 	.sleb128	10
      000870 00 00r03r5E           5272 	.dw	0,(Sstm8s_uart1$UART1_ITConfig$201)
      000874 00 00r03r60           5273 	.dw	0,(Sstm8s_uart1$UART1_ITConfig$202)
      000878 00 02                 5274 	.dw	2
      00087A 78                    5275 	.db	120
      00087B 09                    5276 	.sleb128	9
      00087C 00 00r03r5C           5277 	.dw	0,(Sstm8s_uart1$UART1_ITConfig$200)
      000880 00 00r03r5E           5278 	.dw	0,(Sstm8s_uart1$UART1_ITConfig$201)
      000884 00 02                 5279 	.dw	2
      000886 78                    5280 	.db	120
      000887 08                    5281 	.sleb128	8
      000888 00 00r03r5A           5282 	.dw	0,(Sstm8s_uart1$UART1_ITConfig$199)
      00088C 00 00r03r5C           5283 	.dw	0,(Sstm8s_uart1$UART1_ITConfig$200)
      000890 00 02                 5284 	.dw	2
      000892 78                    5285 	.db	120
      000893 07                    5286 	.sleb128	7
      000894 00 00r03r58           5287 	.dw	0,(Sstm8s_uart1$UART1_ITConfig$198)
      000898 00 00r03r5A           5288 	.dw	0,(Sstm8s_uart1$UART1_ITConfig$199)
      00089C 00 02                 5289 	.dw	2
      00089E 78                    5290 	.db	120
      00089F 06                    5291 	.sleb128	6
      0008A0 00 00r03r56           5292 	.dw	0,(Sstm8s_uart1$UART1_ITConfig$197)
      0008A4 00 00r03r58           5293 	.dw	0,(Sstm8s_uart1$UART1_ITConfig$198)
      0008A8 00 02                 5294 	.dw	2
      0008AA 78                    5295 	.db	120
      0008AB 05                    5296 	.sleb128	5
      0008AC 00 00r03r55           5297 	.dw	0,(Sstm8s_uart1$UART1_ITConfig$196)
      0008B0 00 00r03r56           5298 	.dw	0,(Sstm8s_uart1$UART1_ITConfig$197)
      0008B4 00 02                 5299 	.dw	2
      0008B6 78                    5300 	.db	120
      0008B7 03                    5301 	.sleb128	3
      0008B8 00 00r03r46           5302 	.dw	0,(Sstm8s_uart1$UART1_ITConfig$194)
      0008BC 00 00r03r55           5303 	.dw	0,(Sstm8s_uart1$UART1_ITConfig$196)
      0008C0 00 02                 5304 	.dw	2
      0008C2 78                    5305 	.db	120
      0008C3 03                    5306 	.sleb128	3
      0008C4 00 00r03r45           5307 	.dw	0,(Sstm8s_uart1$UART1_ITConfig$193)
      0008C8 00 00r03r46           5308 	.dw	0,(Sstm8s_uart1$UART1_ITConfig$194)
      0008CC 00 02                 5309 	.dw	2
      0008CE 78                    5310 	.db	120
      0008CF 05                    5311 	.sleb128	5
      0008D0 00 00r03r40           5312 	.dw	0,(Sstm8s_uart1$UART1_ITConfig$192)
      0008D4 00 00r03r45           5313 	.dw	0,(Sstm8s_uart1$UART1_ITConfig$193)
      0008D8 00 02                 5314 	.dw	2
      0008DA 78                    5315 	.db	120
      0008DB 0B                    5316 	.sleb128	11
      0008DC 00 00r03r3E           5317 	.dw	0,(Sstm8s_uart1$UART1_ITConfig$191)
      0008E0 00 00r03r40           5318 	.dw	0,(Sstm8s_uart1$UART1_ITConfig$192)
      0008E4 00 02                 5319 	.dw	2
      0008E6 78                    5320 	.db	120
      0008E7 0A                    5321 	.sleb128	10
      0008E8 00 00r03r3C           5322 	.dw	0,(Sstm8s_uart1$UART1_ITConfig$190)
      0008EC 00 00r03r3E           5323 	.dw	0,(Sstm8s_uart1$UART1_ITConfig$191)
      0008F0 00 02                 5324 	.dw	2
      0008F2 78                    5325 	.db	120
      0008F3 09                    5326 	.sleb128	9
      0008F4 00 00r03r3A           5327 	.dw	0,(Sstm8s_uart1$UART1_ITConfig$189)
      0008F8 00 00r03r3C           5328 	.dw	0,(Sstm8s_uart1$UART1_ITConfig$190)
      0008FC 00 02                 5329 	.dw	2
      0008FE 78                    5330 	.db	120
      0008FF 08                    5331 	.sleb128	8
      000900 00 00r03r38           5332 	.dw	0,(Sstm8s_uart1$UART1_ITConfig$188)
      000904 00 00r03r3A           5333 	.dw	0,(Sstm8s_uart1$UART1_ITConfig$189)
      000908 00 02                 5334 	.dw	2
      00090A 78                    5335 	.db	120
      00090B 07                    5336 	.sleb128	7
      00090C 00 00r03r36           5337 	.dw	0,(Sstm8s_uart1$UART1_ITConfig$187)
      000910 00 00r03r38           5338 	.dw	0,(Sstm8s_uart1$UART1_ITConfig$188)
      000914 00 02                 5339 	.dw	2
      000916 78                    5340 	.db	120
      000917 06                    5341 	.sleb128	6
      000918 00 00r03r34           5342 	.dw	0,(Sstm8s_uart1$UART1_ITConfig$186)
      00091C 00 00r03r36           5343 	.dw	0,(Sstm8s_uart1$UART1_ITConfig$187)
      000920 00 02                 5344 	.dw	2
      000922 78                    5345 	.db	120
      000923 05                    5346 	.sleb128	5
      000924 00 00r03r33           5347 	.dw	0,(Sstm8s_uart1$UART1_ITConfig$185)
      000928 00 00r03r34           5348 	.dw	0,(Sstm8s_uart1$UART1_ITConfig$186)
      00092C 00 02                 5349 	.dw	2
      00092E 78                    5350 	.db	120
      00092F 03                    5351 	.sleb128	3
      000930 00 00r03r2B           5352 	.dw	0,(Sstm8s_uart1$UART1_ITConfig$184)
      000934 00 00r03r33           5353 	.dw	0,(Sstm8s_uart1$UART1_ITConfig$185)
      000938 00 02                 5354 	.dw	2
      00093A 78                    5355 	.db	120
      00093B 03                    5356 	.sleb128	3
      00093C 00 00r03r23           5357 	.dw	0,(Sstm8s_uart1$UART1_ITConfig$183)
      000940 00 00r03r2B           5358 	.dw	0,(Sstm8s_uart1$UART1_ITConfig$184)
      000944 00 02                 5359 	.dw	2
      000946 78                    5360 	.db	120
      000947 03                    5361 	.sleb128	3
      000948 00 00r03r1B           5362 	.dw	0,(Sstm8s_uart1$UART1_ITConfig$182)
      00094C 00 00r03r23           5363 	.dw	0,(Sstm8s_uart1$UART1_ITConfig$183)
      000950 00 02                 5364 	.dw	2
      000952 78                    5365 	.db	120
      000953 03                    5366 	.sleb128	3
      000954 00 00r03r13           5367 	.dw	0,(Sstm8s_uart1$UART1_ITConfig$181)
      000958 00 00r03r1B           5368 	.dw	0,(Sstm8s_uart1$UART1_ITConfig$182)
      00095C 00 02                 5369 	.dw	2
      00095E 78                    5370 	.db	120
      00095F 03                    5371 	.sleb128	3
      000960 00 00r03r0B           5372 	.dw	0,(Sstm8s_uart1$UART1_ITConfig$180)
      000964 00 00r03r13           5373 	.dw	0,(Sstm8s_uart1$UART1_ITConfig$181)
      000968 00 02                 5374 	.dw	2
      00096A 78                    5375 	.db	120
      00096B 03                    5376 	.sleb128	3
      00096C 00 00r03r01           5377 	.dw	0,(Sstm8s_uart1$UART1_ITConfig$178)
      000970 00 00r03r0B           5378 	.dw	0,(Sstm8s_uart1$UART1_ITConfig$180)
      000974 00 02                 5379 	.dw	2
      000976 78                    5380 	.db	120
      000977 03                    5381 	.sleb128	3
      000978 00 00r03r00           5382 	.dw	0,(Sstm8s_uart1$UART1_ITConfig$177)
      00097C 00 00r03r01           5383 	.dw	0,(Sstm8s_uart1$UART1_ITConfig$178)
      000980 00 02                 5384 	.dw	2
      000982 78                    5385 	.db	120
      000983 01                    5386 	.sleb128	1
      000984 00 00 00 00           5387 	.dw	0,0
      000988 00 00 00 00           5388 	.dw	0,0
      00098C 00 00r02rE8           5389 	.dw	0,(Sstm8s_uart1$UART1_Cmd$164)
      000990 00 00r03r00           5390 	.dw	0,(Sstm8s_uart1$UART1_Cmd$175)
      000994 00 02                 5391 	.dw	2
      000996 78                    5392 	.db	120
      000997 01                    5393 	.sleb128	1
      000998 00 00 00 00           5394 	.dw	0,0
      00099C 00 00 00 00           5395 	.dw	0,0
      0009A0 00 00r02rE7           5396 	.dw	0,(Sstm8s_uart1$UART1_Init$160)
      0009A4 00 00r02rE8           5397 	.dw	0,(Sstm8s_uart1$UART1_Init$162)
      0009A8 00 02                 5398 	.dw	2
      0009AA 78                    5399 	.db	120
      0009AB 01                    5400 	.sleb128	1
      0009AC 00 00r02rE0           5401 	.dw	0,(Sstm8s_uart1$UART1_Init$157)
      0009B0 00 00r02rE7           5402 	.dw	0,(Sstm8s_uart1$UART1_Init$160)
      0009B4 00 02                 5403 	.dw	2
      0009B6 78                    5404 	.db	120
      0009B7 0E                    5405 	.sleb128	14
      0009B8 00 00r02rD9           5406 	.dw	0,(Sstm8s_uart1$UART1_Init$156)
      0009BC 00 00r02rE0           5407 	.dw	0,(Sstm8s_uart1$UART1_Init$157)
      0009C0 00 02                 5408 	.dw	2
      0009C2 78                    5409 	.db	120
      0009C3 0F                    5410 	.sleb128	15
      0009C4 00 00r02rB4           5411 	.dw	0,(Sstm8s_uart1$UART1_Init$142)
      0009C8 00 00r02rD9           5412 	.dw	0,(Sstm8s_uart1$UART1_Init$156)
      0009CC 00 02                 5413 	.dw	2
      0009CE 78                    5414 	.db	120
      0009CF 0E                    5415 	.sleb128	14
      0009D0 00 00r02rAF           5416 	.dw	0,(Sstm8s_uart1$UART1_Init$141)
      0009D4 00 00r02rB4           5417 	.dw	0,(Sstm8s_uart1$UART1_Init$142)
      0009D8 00 02                 5418 	.dw	2
      0009DA 78                    5419 	.db	120
      0009DB 0F                    5420 	.sleb128	15
      0009DC 00 00r02r99           5421 	.dw	0,(Sstm8s_uart1$UART1_Init$132)
      0009E0 00 00r02rAF           5422 	.dw	0,(Sstm8s_uart1$UART1_Init$141)
      0009E4 00 02                 5423 	.dw	2
      0009E6 78                    5424 	.db	120
      0009E7 0E                    5425 	.sleb128	14
      0009E8 00 00r02r94           5426 	.dw	0,(Sstm8s_uart1$UART1_Init$131)
      0009EC 00 00r02r99           5427 	.dw	0,(Sstm8s_uart1$UART1_Init$132)
      0009F0 00 02                 5428 	.dw	2
      0009F2 78                    5429 	.db	120
      0009F3 0F                    5430 	.sleb128	15
      0009F4 00 00r02r4A           5431 	.dw	0,(Sstm8s_uart1$UART1_Init$123)
      0009F8 00 00r02r94           5432 	.dw	0,(Sstm8s_uart1$UART1_Init$131)
      0009FC 00 02                 5433 	.dw	2
      0009FE 78                    5434 	.db	120
      0009FF 0E                    5435 	.sleb128	14
      000A00 00 00r02r45           5436 	.dw	0,(Sstm8s_uart1$UART1_Init$122)
      000A04 00 00r02r4A           5437 	.dw	0,(Sstm8s_uart1$UART1_Init$123)
      000A08 00 02                 5438 	.dw	2
      000A0A 78                    5439 	.db	120
      000A0B 16                    5440 	.sleb128	22
      000A0C 00 00r02r44           5441 	.dw	0,(Sstm8s_uart1$UART1_Init$121)
      000A10 00 00r02r45           5442 	.dw	0,(Sstm8s_uart1$UART1_Init$122)
      000A14 00 02                 5443 	.dw	2
      000A16 78                    5444 	.db	120
      000A17 14                    5445 	.sleb128	20
      000A18 00 00r02r42           5446 	.dw	0,(Sstm8s_uart1$UART1_Init$120)
      000A1C 00 00r02r44           5447 	.dw	0,(Sstm8s_uart1$UART1_Init$121)
      000A20 00 02                 5448 	.dw	2
      000A22 78                    5449 	.db	120
      000A23 12                    5450 	.sleb128	18
      000A24 00 00r02r40           5451 	.dw	0,(Sstm8s_uart1$UART1_Init$119)
      000A28 00 00r02r42           5452 	.dw	0,(Sstm8s_uart1$UART1_Init$120)
      000A2C 00 02                 5453 	.dw	2
      000A2E 78                    5454 	.db	120
      000A2F 11                    5455 	.sleb128	17
      000A30 00 00r02r3E           5456 	.dw	0,(Sstm8s_uart1$UART1_Init$118)
      000A34 00 00r02r40           5457 	.dw	0,(Sstm8s_uart1$UART1_Init$119)
      000A38 00 02                 5458 	.dw	2
      000A3A 78                    5459 	.db	120
      000A3B 10                    5460 	.sleb128	16
      000A3C 00 00r02r3C           5461 	.dw	0,(Sstm8s_uart1$UART1_Init$117)
      000A40 00 00r02r3E           5462 	.dw	0,(Sstm8s_uart1$UART1_Init$118)
      000A44 00 02                 5463 	.dw	2
      000A46 78                    5464 	.db	120
      000A47 0F                    5465 	.sleb128	15
      000A48 00 00r02r25           5466 	.dw	0,(Sstm8s_uart1$UART1_Init$116)
      000A4C 00 00r02r3C           5467 	.dw	0,(Sstm8s_uart1$UART1_Init$117)
      000A50 00 02                 5468 	.dw	2
      000A52 78                    5469 	.db	120
      000A53 0E                    5470 	.sleb128	14
      000A54 00 00r02r20           5471 	.dw	0,(Sstm8s_uart1$UART1_Init$115)
      000A58 00 00r02r25           5472 	.dw	0,(Sstm8s_uart1$UART1_Init$116)
      000A5C 00 02                 5473 	.dw	2
      000A5E 78                    5474 	.db	120
      000A5F 0F                    5475 	.sleb128	15
      000A60 00 00r02r1B           5476 	.dw	0,(Sstm8s_uart1$UART1_Init$114)
      000A64 00 00r02r20           5477 	.dw	0,(Sstm8s_uart1$UART1_Init$115)
      000A68 00 02                 5478 	.dw	2
      000A6A 78                    5479 	.db	120
      000A6B 17                    5480 	.sleb128	23
      000A6C 00 00r02r19           5481 	.dw	0,(Sstm8s_uart1$UART1_Init$113)
      000A70 00 00r02r1B           5482 	.dw	0,(Sstm8s_uart1$UART1_Init$114)
      000A74 00 02                 5483 	.dw	2
      000A76 78                    5484 	.db	120
      000A77 16                    5485 	.sleb128	22
      000A78 00 00r02r17           5486 	.dw	0,(Sstm8s_uart1$UART1_Init$112)
      000A7C 00 00r02r19           5487 	.dw	0,(Sstm8s_uart1$UART1_Init$113)
      000A80 00 02                 5488 	.dw	2
      000A82 78                    5489 	.db	120
      000A83 14                    5490 	.sleb128	20
      000A84 00 00r02r15           5491 	.dw	0,(Sstm8s_uart1$UART1_Init$111)
      000A88 00 00r02r17           5492 	.dw	0,(Sstm8s_uart1$UART1_Init$112)
      000A8C 00 02                 5493 	.dw	2
      000A8E 78                    5494 	.db	120
      000A8F 13                    5495 	.sleb128	19
      000A90 00 00r02r12           5496 	.dw	0,(Sstm8s_uart1$UART1_Init$110)
      000A94 00 00r02r15           5497 	.dw	0,(Sstm8s_uart1$UART1_Init$111)
      000A98 00 02                 5498 	.dw	2
      000A9A 78                    5499 	.db	120
      000A9B 11                    5500 	.sleb128	17
      000A9C 00 00r02r0F           5501 	.dw	0,(Sstm8s_uart1$UART1_Init$109)
      000AA0 00 00r02r12           5502 	.dw	0,(Sstm8s_uart1$UART1_Init$110)
      000AA4 00 02                 5503 	.dw	2
      000AA6 78                    5504 	.db	120
      000AA7 0F                    5505 	.sleb128	15
      000AA8 00 00r02r0E           5506 	.dw	0,(Sstm8s_uart1$UART1_Init$108)
      000AAC 00 00r02r0F           5507 	.dw	0,(Sstm8s_uart1$UART1_Init$109)
      000AB0 00 02                 5508 	.dw	2
      000AB2 78                    5509 	.db	120
      000AB3 0E                    5510 	.sleb128	14
      000AB4 00 00r02r0A           5511 	.dw	0,(Sstm8s_uart1$UART1_Init$107)
      000AB8 00 00r02r0E           5512 	.dw	0,(Sstm8s_uart1$UART1_Init$108)
      000ABC 00 02                 5513 	.dw	2
      000ABE 78                    5514 	.db	120
      000ABF 0F                    5515 	.sleb128	15
      000AC0 00 00r01rFE           5516 	.dw	0,(Sstm8s_uart1$UART1_Init$105)
      000AC4 00 00r02r0A           5517 	.dw	0,(Sstm8s_uart1$UART1_Init$107)
      000AC8 00 02                 5518 	.dw	2
      000ACA 78                    5519 	.db	120
      000ACB 0E                    5520 	.sleb128	14
      000ACC 00 00r01rF9           5521 	.dw	0,(Sstm8s_uart1$UART1_Init$104)
      000AD0 00 00r01rFE           5522 	.dw	0,(Sstm8s_uart1$UART1_Init$105)
      000AD4 00 02                 5523 	.dw	2
      000AD6 78                    5524 	.db	120
      000AD7 16                    5525 	.sleb128	22
      000AD8 00 00r01rF7           5526 	.dw	0,(Sstm8s_uart1$UART1_Init$103)
      000ADC 00 00r01rF9           5527 	.dw	0,(Sstm8s_uart1$UART1_Init$104)
      000AE0 00 02                 5528 	.dw	2
      000AE2 78                    5529 	.db	120
      000AE3 14                    5530 	.sleb128	20
      000AE4 00 00r01rF4           5531 	.dw	0,(Sstm8s_uart1$UART1_Init$102)
      000AE8 00 00r01rF7           5532 	.dw	0,(Sstm8s_uart1$UART1_Init$103)
      000AEC 00 02                 5533 	.dw	2
      000AEE 78                    5534 	.db	120
      000AEF 12                    5535 	.sleb128	18
      000AF0 00 00r01rF1           5536 	.dw	0,(Sstm8s_uart1$UART1_Init$101)
      000AF4 00 00r01rF4           5537 	.dw	0,(Sstm8s_uart1$UART1_Init$102)
      000AF8 00 02                 5538 	.dw	2
      000AFA 78                    5539 	.db	120
      000AFB 10                    5540 	.sleb128	16
      000AFC 00 00r01rEC           5541 	.dw	0,(Sstm8s_uart1$UART1_Init$100)
      000B00 00 00r01rF1           5542 	.dw	0,(Sstm8s_uart1$UART1_Init$101)
      000B04 00 02                 5543 	.dw	2
      000B06 78                    5544 	.db	120
      000B07 0E                    5545 	.sleb128	14
      000B08 00 00r01rE7           5546 	.dw	0,(Sstm8s_uart1$UART1_Init$99)
      000B0C 00 00r01rEC           5547 	.dw	0,(Sstm8s_uart1$UART1_Init$100)
      000B10 00 02                 5548 	.dw	2
      000B12 78                    5549 	.db	120
      000B13 16                    5550 	.sleb128	22
      000B14 00 00r01rE5           5551 	.dw	0,(Sstm8s_uart1$UART1_Init$98)
      000B18 00 00r01rE7           5552 	.dw	0,(Sstm8s_uart1$UART1_Init$99)
      000B1C 00 02                 5553 	.dw	2
      000B1E 78                    5554 	.db	120
      000B1F 15                    5555 	.sleb128	21
      000B20 00 00r01rE3           5556 	.dw	0,(Sstm8s_uart1$UART1_Init$97)
      000B24 00 00r01rE5           5557 	.dw	0,(Sstm8s_uart1$UART1_Init$98)
      000B28 00 02                 5558 	.dw	2
      000B2A 78                    5559 	.db	120
      000B2B 13                    5560 	.sleb128	19
      000B2C 00 00r01rE1           5561 	.dw	0,(Sstm8s_uart1$UART1_Init$96)
      000B30 00 00r01rE3           5562 	.dw	0,(Sstm8s_uart1$UART1_Init$97)
      000B34 00 02                 5563 	.dw	2
      000B36 78                    5564 	.db	120
      000B37 12                    5565 	.sleb128	18
      000B38 00 00r01rDF           5566 	.dw	0,(Sstm8s_uart1$UART1_Init$95)
      000B3C 00 00r01rE1           5567 	.dw	0,(Sstm8s_uart1$UART1_Init$96)
      000B40 00 02                 5568 	.dw	2
      000B42 78                    5569 	.db	120
      000B43 10                    5570 	.sleb128	16
      000B44 00 00r01rD7           5571 	.dw	0,(Sstm8s_uart1$UART1_Init$93)
      000B48 00 00r01rDF           5572 	.dw	0,(Sstm8s_uart1$UART1_Init$95)
      000B4C 00 02                 5573 	.dw	2
      000B4E 78                    5574 	.db	120
      000B4F 0E                    5575 	.sleb128	14
      000B50 00 00r01rD2           5576 	.dw	0,(Sstm8s_uart1$UART1_Init$92)
      000B54 00 00r01rD7           5577 	.dw	0,(Sstm8s_uart1$UART1_Init$93)
      000B58 00 02                 5578 	.dw	2
      000B5A 78                    5579 	.db	120
      000B5B 16                    5580 	.sleb128	22
      000B5C 00 00r01rD0           5581 	.dw	0,(Sstm8s_uart1$UART1_Init$91)
      000B60 00 00r01rD2           5582 	.dw	0,(Sstm8s_uart1$UART1_Init$92)
      000B64 00 02                 5583 	.dw	2
      000B66 78                    5584 	.db	120
      000B67 14                    5585 	.sleb128	20
      000B68 00 00r01rCD           5586 	.dw	0,(Sstm8s_uart1$UART1_Init$90)
      000B6C 00 00r01rD0           5587 	.dw	0,(Sstm8s_uart1$UART1_Init$91)
      000B70 00 02                 5588 	.dw	2
      000B72 78                    5589 	.db	120
      000B73 12                    5590 	.sleb128	18
      000B74 00 00r01rCA           5591 	.dw	0,(Sstm8s_uart1$UART1_Init$89)
      000B78 00 00r01rCD           5592 	.dw	0,(Sstm8s_uart1$UART1_Init$90)
      000B7C 00 02                 5593 	.dw	2
      000B7E 78                    5594 	.db	120
      000B7F 10                    5595 	.sleb128	16
      000B80 00 00r01r69           5596 	.dw	0,(Sstm8s_uart1$UART1_Init$78)
      000B84 00 00r01rCA           5597 	.dw	0,(Sstm8s_uart1$UART1_Init$89)
      000B88 00 02                 5598 	.dw	2
      000B8A 78                    5599 	.db	120
      000B8B 0E                    5600 	.sleb128	14
      000B8C 00 00r01r64           5601 	.dw	0,(Sstm8s_uart1$UART1_Init$77)
      000B90 00 00r01r69           5602 	.dw	0,(Sstm8s_uart1$UART1_Init$78)
      000B94 00 02                 5603 	.dw	2
      000B96 78                    5604 	.db	120
      000B97 14                    5605 	.sleb128	20
      000B98 00 00r01r62           5606 	.dw	0,(Sstm8s_uart1$UART1_Init$76)
      000B9C 00 00r01r64           5607 	.dw	0,(Sstm8s_uart1$UART1_Init$77)
      000BA0 00 02                 5608 	.dw	2
      000BA2 78                    5609 	.db	120
      000BA3 13                    5610 	.sleb128	19
      000BA4 00 00r01r60           5611 	.dw	0,(Sstm8s_uart1$UART1_Init$75)
      000BA8 00 00r01r62           5612 	.dw	0,(Sstm8s_uart1$UART1_Init$76)
      000BAC 00 02                 5613 	.dw	2
      000BAE 78                    5614 	.db	120
      000BAF 12                    5615 	.sleb128	18
      000BB0 00 00r01r5E           5616 	.dw	0,(Sstm8s_uart1$UART1_Init$74)
      000BB4 00 00r01r60           5617 	.dw	0,(Sstm8s_uart1$UART1_Init$75)
      000BB8 00 02                 5618 	.dw	2
      000BBA 78                    5619 	.db	120
      000BBB 11                    5620 	.sleb128	17
      000BBC 00 00r01r5C           5621 	.dw	0,(Sstm8s_uart1$UART1_Init$73)
      000BC0 00 00r01r5E           5622 	.dw	0,(Sstm8s_uart1$UART1_Init$74)
      000BC4 00 02                 5623 	.dw	2
      000BC6 78                    5624 	.db	120
      000BC7 0F                    5625 	.sleb128	15
      000BC8 00 00r01r5A           5626 	.dw	0,(Sstm8s_uart1$UART1_Init$72)
      000BCC 00 00r01r5C           5627 	.dw	0,(Sstm8s_uart1$UART1_Init$73)
      000BD0 00 02                 5628 	.dw	2
      000BD2 78                    5629 	.db	120
      000BD3 0E                    5630 	.sleb128	14
      000BD4 00 00r01r4C           5631 	.dw	0,(Sstm8s_uart1$UART1_Init$71)
      000BD8 00 00r01r5A           5632 	.dw	0,(Sstm8s_uart1$UART1_Init$72)
      000BDC 00 02                 5633 	.dw	2
      000BDE 78                    5634 	.db	120
      000BDF 0E                    5635 	.sleb128	14
      000BE0 00 00r01r41           5636 	.dw	0,(Sstm8s_uart1$UART1_Init$70)
      000BE4 00 00r01r4C           5637 	.dw	0,(Sstm8s_uart1$UART1_Init$71)
      000BE8 00 02                 5638 	.dw	2
      000BEA 78                    5639 	.db	120
      000BEB 0E                    5640 	.sleb128	14
      000BEC 00 00r01r36           5641 	.dw	0,(Sstm8s_uart1$UART1_Init$69)
      000BF0 00 00r01r41           5642 	.dw	0,(Sstm8s_uart1$UART1_Init$70)
      000BF4 00 02                 5643 	.dw	2
      000BF6 78                    5644 	.db	120
      000BF7 0E                    5645 	.sleb128	14
      000BF8 00 00r01r2B           5646 	.dw	0,(Sstm8s_uart1$UART1_Init$67)
      000BFC 00 00r01r36           5647 	.dw	0,(Sstm8s_uart1$UART1_Init$69)
      000C00 00 02                 5648 	.dw	2
      000C02 78                    5649 	.db	120
      000C03 0E                    5650 	.sleb128	14
      000C04 00 00r01r26           5651 	.dw	0,(Sstm8s_uart1$UART1_Init$66)
      000C08 00 00r01r2B           5652 	.dw	0,(Sstm8s_uart1$UART1_Init$67)
      000C0C 00 02                 5653 	.dw	2
      000C0E 78                    5654 	.db	120
      000C0F 14                    5655 	.sleb128	20
      000C10 00 00r01r24           5656 	.dw	0,(Sstm8s_uart1$UART1_Init$65)
      000C14 00 00r01r26           5657 	.dw	0,(Sstm8s_uart1$UART1_Init$66)
      000C18 00 02                 5658 	.dw	2
      000C1A 78                    5659 	.db	120
      000C1B 13                    5660 	.sleb128	19
      000C1C 00 00r01r22           5661 	.dw	0,(Sstm8s_uart1$UART1_Init$64)
      000C20 00 00r01r24           5662 	.dw	0,(Sstm8s_uart1$UART1_Init$65)
      000C24 00 02                 5663 	.dw	2
      000C26 78                    5664 	.db	120
      000C27 12                    5665 	.sleb128	18
      000C28 00 00r01r20           5666 	.dw	0,(Sstm8s_uart1$UART1_Init$63)
      000C2C 00 00r01r22           5667 	.dw	0,(Sstm8s_uart1$UART1_Init$64)
      000C30 00 02                 5668 	.dw	2
      000C32 78                    5669 	.db	120
      000C33 11                    5670 	.sleb128	17
      000C34 00 00r01r1E           5671 	.dw	0,(Sstm8s_uart1$UART1_Init$62)
      000C38 00 00r01r20           5672 	.dw	0,(Sstm8s_uart1$UART1_Init$63)
      000C3C 00 02                 5673 	.dw	2
      000C3E 78                    5674 	.db	120
      000C3F 0F                    5675 	.sleb128	15
      000C40 00 00r01r1C           5676 	.dw	0,(Sstm8s_uart1$UART1_Init$61)
      000C44 00 00r01r1E           5677 	.dw	0,(Sstm8s_uart1$UART1_Init$62)
      000C48 00 02                 5678 	.dw	2
      000C4A 78                    5679 	.db	120
      000C4B 0E                    5680 	.sleb128	14
      000C4C 00 00r01r13           5681 	.dw	0,(Sstm8s_uart1$UART1_Init$60)
      000C50 00 00r01r1C           5682 	.dw	0,(Sstm8s_uart1$UART1_Init$61)
      000C54 00 02                 5683 	.dw	2
      000C56 78                    5684 	.db	120
      000C57 0E                    5685 	.sleb128	14
      000C58 00 00r01r0A           5686 	.dw	0,(Sstm8s_uart1$UART1_Init$59)
      000C5C 00 00r01r13           5687 	.dw	0,(Sstm8s_uart1$UART1_Init$60)
      000C60 00 02                 5688 	.dw	2
      000C62 78                    5689 	.db	120
      000C63 0E                    5690 	.sleb128	14
      000C64 00 00r00rF5           5691 	.dw	0,(Sstm8s_uart1$UART1_Init$58)
      000C68 00 00r01r0A           5692 	.dw	0,(Sstm8s_uart1$UART1_Init$59)
      000C6C 00 02                 5693 	.dw	2
      000C6E 78                    5694 	.db	120
      000C6F 0E                    5695 	.sleb128	14
      000C70 00 00r00rE9           5696 	.dw	0,(Sstm8s_uart1$UART1_Init$57)
      000C74 00 00r00rF5           5697 	.dw	0,(Sstm8s_uart1$UART1_Init$58)
      000C78 00 02                 5698 	.dw	2
      000C7A 78                    5699 	.db	120
      000C7B 0E                    5700 	.sleb128	14
      000C7C 00 00r00rE0           5701 	.dw	0,(Sstm8s_uart1$UART1_Init$56)
      000C80 00 00r00rE9           5702 	.dw	0,(Sstm8s_uart1$UART1_Init$57)
      000C84 00 02                 5703 	.dw	2
      000C86 78                    5704 	.db	120
      000C87 0E                    5705 	.sleb128	14
      000C88 00 00r00rD7           5706 	.dw	0,(Sstm8s_uart1$UART1_Init$55)
      000C8C 00 00r00rE0           5707 	.dw	0,(Sstm8s_uart1$UART1_Init$56)
      000C90 00 02                 5708 	.dw	2
      000C92 78                    5709 	.db	120
      000C93 0E                    5710 	.sleb128	14
      000C94 00 00r00rCE           5711 	.dw	0,(Sstm8s_uart1$UART1_Init$54)
      000C98 00 00r00rD7           5712 	.dw	0,(Sstm8s_uart1$UART1_Init$55)
      000C9C 00 02                 5713 	.dw	2
      000C9E 78                    5714 	.db	120
      000C9F 0E                    5715 	.sleb128	14
      000CA0 00 00r00rC5           5716 	.dw	0,(Sstm8s_uart1$UART1_Init$52)
      000CA4 00 00r00rCE           5717 	.dw	0,(Sstm8s_uart1$UART1_Init$54)
      000CA8 00 02                 5718 	.dw	2
      000CAA 78                    5719 	.db	120
      000CAB 0E                    5720 	.sleb128	14
      000CAC 00 00r00rC0           5721 	.dw	0,(Sstm8s_uart1$UART1_Init$51)
      000CB0 00 00r00rC5           5722 	.dw	0,(Sstm8s_uart1$UART1_Init$52)
      000CB4 00 02                 5723 	.dw	2
      000CB6 78                    5724 	.db	120
      000CB7 14                    5725 	.sleb128	20
      000CB8 00 00r00rBE           5726 	.dw	0,(Sstm8s_uart1$UART1_Init$50)
      000CBC 00 00r00rC0           5727 	.dw	0,(Sstm8s_uart1$UART1_Init$51)
      000CC0 00 02                 5728 	.dw	2
      000CC2 78                    5729 	.db	120
      000CC3 13                    5730 	.sleb128	19
      000CC4 00 00r00rBC           5731 	.dw	0,(Sstm8s_uart1$UART1_Init$49)
      000CC8 00 00r00rBE           5732 	.dw	0,(Sstm8s_uart1$UART1_Init$50)
      000CCC 00 02                 5733 	.dw	2
      000CCE 78                    5734 	.db	120
      000CCF 12                    5735 	.sleb128	18
      000CD0 00 00r00rBA           5736 	.dw	0,(Sstm8s_uart1$UART1_Init$48)
      000CD4 00 00r00rBC           5737 	.dw	0,(Sstm8s_uart1$UART1_Init$49)
      000CD8 00 02                 5738 	.dw	2
      000CDA 78                    5739 	.db	120
      000CDB 11                    5740 	.sleb128	17
      000CDC 00 00r00rB8           5741 	.dw	0,(Sstm8s_uart1$UART1_Init$47)
      000CE0 00 00r00rBA           5742 	.dw	0,(Sstm8s_uart1$UART1_Init$48)
      000CE4 00 02                 5743 	.dw	2
      000CE6 78                    5744 	.db	120
      000CE7 0F                    5745 	.sleb128	15
      000CE8 00 00r00rB6           5746 	.dw	0,(Sstm8s_uart1$UART1_Init$46)
      000CEC 00 00r00rB8           5747 	.dw	0,(Sstm8s_uart1$UART1_Init$47)
      000CF0 00 02                 5748 	.dw	2
      000CF2 78                    5749 	.db	120
      000CF3 0E                    5750 	.sleb128	14
      000CF4 00 00r00rAD           5751 	.dw	0,(Sstm8s_uart1$UART1_Init$45)
      000CF8 00 00r00rB6           5752 	.dw	0,(Sstm8s_uart1$UART1_Init$46)
      000CFC 00 02                 5753 	.dw	2
      000CFE 78                    5754 	.db	120
      000CFF 0E                    5755 	.sleb128	14
      000D00 00 00r00r9D           5756 	.dw	0,(Sstm8s_uart1$UART1_Init$43)
      000D04 00 00r00rAD           5757 	.dw	0,(Sstm8s_uart1$UART1_Init$45)
      000D08 00 02                 5758 	.dw	2
      000D0A 78                    5759 	.db	120
      000D0B 0E                    5760 	.sleb128	14
      000D0C 00 00r00r98           5761 	.dw	0,(Sstm8s_uart1$UART1_Init$42)
      000D10 00 00r00r9D           5762 	.dw	0,(Sstm8s_uart1$UART1_Init$43)
      000D14 00 02                 5763 	.dw	2
      000D16 78                    5764 	.db	120
      000D17 14                    5765 	.sleb128	20
      000D18 00 00r00r96           5766 	.dw	0,(Sstm8s_uart1$UART1_Init$41)
      000D1C 00 00r00r98           5767 	.dw	0,(Sstm8s_uart1$UART1_Init$42)
      000D20 00 02                 5768 	.dw	2
      000D22 78                    5769 	.db	120
      000D23 13                    5770 	.sleb128	19
      000D24 00 00r00r94           5771 	.dw	0,(Sstm8s_uart1$UART1_Init$40)
      000D28 00 00r00r96           5772 	.dw	0,(Sstm8s_uart1$UART1_Init$41)
      000D2C 00 02                 5773 	.dw	2
      000D2E 78                    5774 	.db	120
      000D2F 12                    5775 	.sleb128	18
      000D30 00 00r00r92           5776 	.dw	0,(Sstm8s_uart1$UART1_Init$39)
      000D34 00 00r00r94           5777 	.dw	0,(Sstm8s_uart1$UART1_Init$40)
      000D38 00 02                 5778 	.dw	2
      000D3A 78                    5779 	.db	120
      000D3B 11                    5780 	.sleb128	17
      000D3C 00 00r00r90           5781 	.dw	0,(Sstm8s_uart1$UART1_Init$38)
      000D40 00 00r00r92           5782 	.dw	0,(Sstm8s_uart1$UART1_Init$39)
      000D44 00 02                 5783 	.dw	2
      000D46 78                    5784 	.db	120
      000D47 0F                    5785 	.sleb128	15
      000D48 00 00r00r8E           5786 	.dw	0,(Sstm8s_uart1$UART1_Init$37)
      000D4C 00 00r00r90           5787 	.dw	0,(Sstm8s_uart1$UART1_Init$38)
      000D50 00 02                 5788 	.dw	2
      000D52 78                    5789 	.db	120
      000D53 0E                    5790 	.sleb128	14
      000D54 00 00r00r85           5791 	.dw	0,(Sstm8s_uart1$UART1_Init$36)
      000D58 00 00r00r8E           5792 	.dw	0,(Sstm8s_uart1$UART1_Init$37)
      000D5C 00 02                 5793 	.dw	2
      000D5E 78                    5794 	.db	120
      000D5F 0E                    5795 	.sleb128	14
      000D60 00 00r00r7C           5796 	.dw	0,(Sstm8s_uart1$UART1_Init$35)
      000D64 00 00r00r85           5797 	.dw	0,(Sstm8s_uart1$UART1_Init$36)
      000D68 00 02                 5798 	.dw	2
      000D6A 78                    5799 	.db	120
      000D6B 0E                    5800 	.sleb128	14
      000D6C 00 00r00r6C           5801 	.dw	0,(Sstm8s_uart1$UART1_Init$33)
      000D70 00 00r00r7C           5802 	.dw	0,(Sstm8s_uart1$UART1_Init$35)
      000D74 00 02                 5803 	.dw	2
      000D76 78                    5804 	.db	120
      000D77 0E                    5805 	.sleb128	14
      000D78 00 00r00r67           5806 	.dw	0,(Sstm8s_uart1$UART1_Init$32)
      000D7C 00 00r00r6C           5807 	.dw	0,(Sstm8s_uart1$UART1_Init$33)
      000D80 00 02                 5808 	.dw	2
      000D82 78                    5809 	.db	120
      000D83 14                    5810 	.sleb128	20
      000D84 00 00r00r65           5811 	.dw	0,(Sstm8s_uart1$UART1_Init$31)
      000D88 00 00r00r67           5812 	.dw	0,(Sstm8s_uart1$UART1_Init$32)
      000D8C 00 02                 5813 	.dw	2
      000D8E 78                    5814 	.db	120
      000D8F 13                    5815 	.sleb128	19
      000D90 00 00r00r63           5816 	.dw	0,(Sstm8s_uart1$UART1_Init$30)
      000D94 00 00r00r65           5817 	.dw	0,(Sstm8s_uart1$UART1_Init$31)
      000D98 00 02                 5818 	.dw	2
      000D9A 78                    5819 	.db	120
      000D9B 12                    5820 	.sleb128	18
      000D9C 00 00r00r61           5821 	.dw	0,(Sstm8s_uart1$UART1_Init$29)
      000DA0 00 00r00r63           5822 	.dw	0,(Sstm8s_uart1$UART1_Init$30)
      000DA4 00 02                 5823 	.dw	2
      000DA6 78                    5824 	.db	120
      000DA7 11                    5825 	.sleb128	17
      000DA8 00 00r00r5F           5826 	.dw	0,(Sstm8s_uart1$UART1_Init$28)
      000DAC 00 00r00r61           5827 	.dw	0,(Sstm8s_uart1$UART1_Init$29)
      000DB0 00 02                 5828 	.dw	2
      000DB2 78                    5829 	.db	120
      000DB3 0F                    5830 	.sleb128	15
      000DB4 00 00r00r5D           5831 	.dw	0,(Sstm8s_uart1$UART1_Init$27)
      000DB8 00 00r00r5F           5832 	.dw	0,(Sstm8s_uart1$UART1_Init$28)
      000DBC 00 02                 5833 	.dw	2
      000DBE 78                    5834 	.db	120
      000DBF 0E                    5835 	.sleb128	14
      000DC0 00 00r00r4D           5836 	.dw	0,(Sstm8s_uart1$UART1_Init$25)
      000DC4 00 00r00r5D           5837 	.dw	0,(Sstm8s_uart1$UART1_Init$27)
      000DC8 00 02                 5838 	.dw	2
      000DCA 78                    5839 	.db	120
      000DCB 0E                    5840 	.sleb128	14
      000DCC 00 00r00r48           5841 	.dw	0,(Sstm8s_uart1$UART1_Init$24)
      000DD0 00 00r00r4D           5842 	.dw	0,(Sstm8s_uart1$UART1_Init$25)
      000DD4 00 02                 5843 	.dw	2
      000DD6 78                    5844 	.db	120
      000DD7 14                    5845 	.sleb128	20
      000DD8 00 00r00r46           5846 	.dw	0,(Sstm8s_uart1$UART1_Init$23)
      000DDC 00 00r00r48           5847 	.dw	0,(Sstm8s_uart1$UART1_Init$24)
      000DE0 00 02                 5848 	.dw	2
      000DE2 78                    5849 	.db	120
      000DE3 13                    5850 	.sleb128	19
      000DE4 00 00r00r44           5851 	.dw	0,(Sstm8s_uart1$UART1_Init$22)
      000DE8 00 00r00r46           5852 	.dw	0,(Sstm8s_uart1$UART1_Init$23)
      000DEC 00 02                 5853 	.dw	2
      000DEE 78                    5854 	.db	120
      000DEF 12                    5855 	.sleb128	18
      000DF0 00 00r00r42           5856 	.dw	0,(Sstm8s_uart1$UART1_Init$21)
      000DF4 00 00r00r44           5857 	.dw	0,(Sstm8s_uart1$UART1_Init$22)
      000DF8 00 02                 5858 	.dw	2
      000DFA 78                    5859 	.db	120
      000DFB 11                    5860 	.sleb128	17
      000DFC 00 00r00r40           5861 	.dw	0,(Sstm8s_uart1$UART1_Init$20)
      000E00 00 00r00r42           5862 	.dw	0,(Sstm8s_uart1$UART1_Init$21)
      000E04 00 02                 5863 	.dw	2
      000E06 78                    5864 	.db	120
      000E07 0F                    5865 	.sleb128	15
      000E08 00 00r00r2D           5866 	.dw	0,(Sstm8s_uart1$UART1_Init$18)
      000E0C 00 00r00r40           5867 	.dw	0,(Sstm8s_uart1$UART1_Init$20)
      000E10 00 02                 5868 	.dw	2
      000E12 78                    5869 	.db	120
      000E13 0E                    5870 	.sleb128	14
      000E14 00 00r00r2B           5871 	.dw	0,(Sstm8s_uart1$UART1_Init$17)
      000E18 00 00r00r2D           5872 	.dw	0,(Sstm8s_uart1$UART1_Init$18)
      000E1C 00 02                 5873 	.dw	2
      000E1E 78                    5874 	.db	120
      000E1F 01                    5875 	.sleb128	1
      000E20 00 00 00 00           5876 	.dw	0,0
      000E24 00 00 00 00           5877 	.dw	0,0
      000E28 00 00r00r00           5878 	.dw	0,(Sstm8s_uart1$UART1_DeInit$1)
      000E2C 00 00r00r2B           5879 	.dw	0,(Sstm8s_uart1$UART1_DeInit$15)
      000E30 00 02                 5880 	.dw	2
      000E32 78                    5881 	.db	120
      000E33 01                    5882 	.sleb128	1
      000E34 00 00 00 00           5883 	.dw	0,0
      000E38 00 00 00 00           5884 	.dw	0,0
                                   5885 
                                   5886 	.area .debug_abbrev (NOLOAD)
      000000                       5887 Ldebug_abbrev:
      000000 09                    5888 	.uleb128	9
      000001 2E                    5889 	.uleb128	46
      000002 00                    5890 	.db	0
      000003 03                    5891 	.uleb128	3
      000004 08                    5892 	.uleb128	8
      000005 11                    5893 	.uleb128	17
      000006 01                    5894 	.uleb128	1
      000007 12                    5895 	.uleb128	18
      000008 01                    5896 	.uleb128	1
      000009 3F                    5897 	.uleb128	63
      00000A 0C                    5898 	.uleb128	12
      00000B 40                    5899 	.uleb128	64
      00000C 06                    5900 	.uleb128	6
      00000D 49                    5901 	.uleb128	73
      00000E 13                    5902 	.uleb128	19
      00000F 00                    5903 	.uleb128	0
      000010 00                    5904 	.uleb128	0
      000011 04                    5905 	.uleb128	4
      000012 05                    5906 	.uleb128	5
      000013 00                    5907 	.db	0
      000014 02                    5908 	.uleb128	2
      000015 0A                    5909 	.uleb128	10
      000016 03                    5910 	.uleb128	3
      000017 08                    5911 	.uleb128	8
      000018 49                    5912 	.uleb128	73
      000019 13                    5913 	.uleb128	19
      00001A 00                    5914 	.uleb128	0
      00001B 00                    5915 	.uleb128	0
      00001C 0C                    5916 	.uleb128	12
      00001D 01                    5917 	.uleb128	1
      00001E 01                    5918 	.db	1
      00001F 01                    5919 	.uleb128	1
      000020 13                    5920 	.uleb128	19
      000021 0B                    5921 	.uleb128	11
      000022 0B                    5922 	.uleb128	11
      000023 49                    5923 	.uleb128	73
      000024 13                    5924 	.uleb128	19
      000025 00                    5925 	.uleb128	0
      000026 00                    5926 	.uleb128	0
      000027 03                    5927 	.uleb128	3
      000028 2E                    5928 	.uleb128	46
      000029 01                    5929 	.db	1
      00002A 01                    5930 	.uleb128	1
      00002B 13                    5931 	.uleb128	19
      00002C 03                    5932 	.uleb128	3
      00002D 08                    5933 	.uleb128	8
      00002E 11                    5934 	.uleb128	17
      00002F 01                    5935 	.uleb128	1
      000030 12                    5936 	.uleb128	18
      000031 01                    5937 	.uleb128	1
      000032 3F                    5938 	.uleb128	63
      000033 0C                    5939 	.uleb128	12
      000034 40                    5940 	.uleb128	64
      000035 06                    5941 	.uleb128	6
      000036 00                    5942 	.uleb128	0
      000037 00                    5943 	.uleb128	0
      000038 06                    5944 	.uleb128	6
      000039 34                    5945 	.uleb128	52
      00003A 00                    5946 	.db	0
      00003B 02                    5947 	.uleb128	2
      00003C 0A                    5948 	.uleb128	10
      00003D 03                    5949 	.uleb128	3
      00003E 08                    5950 	.uleb128	8
      00003F 49                    5951 	.uleb128	73
      000040 13                    5952 	.uleb128	19
      000041 00                    5953 	.uleb128	0
      000042 00                    5954 	.uleb128	0
      000043 0A                    5955 	.uleb128	10
      000044 2E                    5956 	.uleb128	46
      000045 01                    5957 	.db	1
      000046 01                    5958 	.uleb128	1
      000047 13                    5959 	.uleb128	19
      000048 03                    5960 	.uleb128	3
      000049 08                    5961 	.uleb128	8
      00004A 11                    5962 	.uleb128	17
      00004B 01                    5963 	.uleb128	1
      00004C 12                    5964 	.uleb128	18
      00004D 01                    5965 	.uleb128	1
      00004E 3F                    5966 	.uleb128	63
      00004F 0C                    5967 	.uleb128	12
      000050 40                    5968 	.uleb128	64
      000051 06                    5969 	.uleb128	6
      000052 49                    5970 	.uleb128	73
      000053 13                    5971 	.uleb128	19
      000054 00                    5972 	.uleb128	0
      000055 00                    5973 	.uleb128	0
      000056 0B                    5974 	.uleb128	11
      000057 26                    5975 	.uleb128	38
      000058 00                    5976 	.db	0
      000059 49                    5977 	.uleb128	73
      00005A 13                    5978 	.uleb128	19
      00005B 00                    5979 	.uleb128	0
      00005C 00                    5980 	.uleb128	0
      00005D 01                    5981 	.uleb128	1
      00005E 11                    5982 	.uleb128	17
      00005F 01                    5983 	.db	1
      000060 03                    5984 	.uleb128	3
      000061 08                    5985 	.uleb128	8
      000062 10                    5986 	.uleb128	16
      000063 06                    5987 	.uleb128	6
      000064 13                    5988 	.uleb128	19
      000065 0B                    5989 	.uleb128	11
      000066 25                    5990 	.uleb128	37
      000067 08                    5991 	.uleb128	8
      000068 00                    5992 	.uleb128	0
      000069 00                    5993 	.uleb128	0
      00006A 05                    5994 	.uleb128	5
      00006B 0B                    5995 	.uleb128	11
      00006C 00                    5996 	.db	0
      00006D 11                    5997 	.uleb128	17
      00006E 01                    5998 	.uleb128	1
      00006F 12                    5999 	.uleb128	18
      000070 01                    6000 	.uleb128	1
      000071 00                    6001 	.uleb128	0
      000072 00                    6002 	.uleb128	0
      000073 08                    6003 	.uleb128	8
      000074 0B                    6004 	.uleb128	11
      000075 01                    6005 	.db	1
      000076 01                    6006 	.uleb128	1
      000077 13                    6007 	.uleb128	19
      000078 11                    6008 	.uleb128	17
      000079 01                    6009 	.uleb128	1
      00007A 00                    6010 	.uleb128	0
      00007B 00                    6011 	.uleb128	0
      00007C 02                    6012 	.uleb128	2
      00007D 2E                    6013 	.uleb128	46
      00007E 00                    6014 	.db	0
      00007F 03                    6015 	.uleb128	3
      000080 08                    6016 	.uleb128	8
      000081 11                    6017 	.uleb128	17
      000082 01                    6018 	.uleb128	1
      000083 12                    6019 	.uleb128	18
      000084 01                    6020 	.uleb128	1
      000085 3F                    6021 	.uleb128	63
      000086 0C                    6022 	.uleb128	12
      000087 40                    6023 	.uleb128	64
      000088 06                    6024 	.uleb128	6
      000089 00                    6025 	.uleb128	0
      00008A 00                    6026 	.uleb128	0
      00008B 0D                    6027 	.uleb128	13
      00008C 21                    6028 	.uleb128	33
      00008D 00                    6029 	.db	0
      00008E 2F                    6030 	.uleb128	47
      00008F 0B                    6031 	.uleb128	11
      000090 00                    6032 	.uleb128	0
      000091 00                    6033 	.uleb128	0
      000092 07                    6034 	.uleb128	7
      000093 24                    6035 	.uleb128	36
      000094 00                    6036 	.db	0
      000095 03                    6037 	.uleb128	3
      000096 08                    6038 	.uleb128	8
      000097 0B                    6039 	.uleb128	11
      000098 0B                    6040 	.uleb128	11
      000099 3E                    6041 	.uleb128	62
      00009A 0B                    6042 	.uleb128	11
      00009B 00                    6043 	.uleb128	0
      00009C 00                    6044 	.uleb128	0
      00009D 00                    6045 	.uleb128	0
                                   6046 
                                   6047 	.area .debug_info (NOLOAD)
      000000 00 00 08 FD           6048 	.dw	0,Ldebug_info_end-Ldebug_info_start
      000004                       6049 Ldebug_info_start:
      000004 00 02                 6050 	.dw	2
      000006 00 00r00r00           6051 	.dw	0,(Ldebug_abbrev)
      00000A 04                    6052 	.db	4
      00000B 01                    6053 	.uleb128	1
      00000C 2E 2E 2F 53 50 4C 2F  6054 	.ascii "../SPL/src/stm8s_uart1.c"
             73 72 63 2F 73 74 6D
             38 73 5F 75 61 72 74
             31 2E 63
      000024 00                    6055 	.db	0
      000025 00 00r00r00           6056 	.dw	0,(Ldebug_line_start+-4)
      000029 01                    6057 	.db	1
      00002A 53 44 43 43 20 76 65  6058 	.ascii "SDCC version 4.1.0 #12072"
             72 73 69 6F 6E 20 34
             2E 31 2E 30 20 23 31
             32 30 37 32
      000043 00                    6059 	.db	0
      000044 02                    6060 	.uleb128	2
      000045 55 41 52 54 31 5F 44  6061 	.ascii "UART1_DeInit"
             65 49 6E 69 74
      000051 00                    6062 	.db	0
      000052 00 00r00r00           6063 	.dw	0,(_UART1_DeInit)
      000056 00 00r00r2B           6064 	.dw	0,(XG$UART1_DeInit$0$0+1)
      00005A 01                    6065 	.db	1
      00005B 00 00r0Er28           6066 	.dw	0,(Ldebug_loc_start+3624)
      00005F 03                    6067 	.uleb128	3
      000060 00 00 01 59           6068 	.dw	0,345
      000064 55 41 52 54 31 5F 49  6069 	.ascii "UART1_Init"
             6E 69 74
      00006E 00                    6070 	.db	0
      00006F 00 00r00r2B           6071 	.dw	0,(_UART1_Init)
      000073 00 00r02rE8           6072 	.dw	0,(XG$UART1_Init$0$0+1)
      000077 01                    6073 	.db	1
      000078 00 00r09rA0           6074 	.dw	0,(Ldebug_loc_start+2464)
      00007C 04                    6075 	.uleb128	4
      00007D 02                    6076 	.db	2
      00007E 91                    6077 	.db	145
      00007F 02                    6078 	.sleb128	2
      000080 42 61 75 64 52 61 74  6079 	.ascii "BaudRate"
             65
      000088 00                    6080 	.db	0
      000089 00 00 01 59           6081 	.dw	0,345
      00008D 04                    6082 	.uleb128	4
      00008E 02                    6083 	.db	2
      00008F 91                    6084 	.db	145
      000090 06                    6085 	.sleb128	6
      000091 57 6F 72 64 4C 65 6E  6086 	.ascii "WordLength"
             67 74 68
      00009B 00                    6087 	.db	0
      00009C 00 00 01 6A           6088 	.dw	0,362
      0000A0 04                    6089 	.uleb128	4
      0000A1 02                    6090 	.db	2
      0000A2 91                    6091 	.db	145
      0000A3 07                    6092 	.sleb128	7
      0000A4 53 74 6F 70 42 69 74  6093 	.ascii "StopBits"
             73
      0000AC 00                    6094 	.db	0
      0000AD 00 00 01 6A           6095 	.dw	0,362
      0000B1 04                    6096 	.uleb128	4
      0000B2 02                    6097 	.db	2
      0000B3 91                    6098 	.db	145
      0000B4 08                    6099 	.sleb128	8
      0000B5 50 61 72 69 74 79     6100 	.ascii "Parity"
      0000BB 00                    6101 	.db	0
      0000BC 00 00 01 6A           6102 	.dw	0,362
      0000C0 04                    6103 	.uleb128	4
      0000C1 02                    6104 	.db	2
      0000C2 91                    6105 	.db	145
      0000C3 09                    6106 	.sleb128	9
      0000C4 53 79 6E 63 4D 6F 64  6107 	.ascii "SyncMode"
             65
      0000CC 00                    6108 	.db	0
      0000CD 00 00 01 6A           6109 	.dw	0,362
      0000D1 04                    6110 	.uleb128	4
      0000D2 02                    6111 	.db	2
      0000D3 91                    6112 	.db	145
      0000D4 0A                    6113 	.sleb128	10
      0000D5 4D 6F 64 65           6114 	.ascii "Mode"
      0000D9 00                    6115 	.db	0
      0000DA 00 00 01 6A           6116 	.dw	0,362
      0000DE 05                    6117 	.uleb128	5
      0000DF 00 00r02r9E           6118 	.dw	0,(Sstm8s_uart1$UART1_Init$133)
      0000E3 00 00r02rA3           6119 	.dw	0,(Sstm8s_uart1$UART1_Init$135)
      0000E7 05                    6120 	.uleb128	5
      0000E8 00 00r02rA6           6121 	.dw	0,(Sstm8s_uart1$UART1_Init$136)
      0000EC 00 00r02rAB           6122 	.dw	0,(Sstm8s_uart1$UART1_Init$138)
      0000F0 05                    6123 	.uleb128	5
      0000F1 00 00r02rB9           6124 	.dw	0,(Sstm8s_uart1$UART1_Init$143)
      0000F5 00 00r02rBE           6125 	.dw	0,(Sstm8s_uart1$UART1_Init$145)
      0000F9 05                    6126 	.uleb128	5
      0000FA 00 00r02rC1           6127 	.dw	0,(Sstm8s_uart1$UART1_Init$146)
      0000FE 00 00r02rC6           6128 	.dw	0,(Sstm8s_uart1$UART1_Init$148)
      000102 05                    6129 	.uleb128	5
      000103 00 00r02rD0           6130 	.dw	0,(Sstm8s_uart1$UART1_Init$151)
      000107 00 00r02rD5           6131 	.dw	0,(Sstm8s_uart1$UART1_Init$153)
      00010B 05                    6132 	.uleb128	5
      00010C 00 00r02rD8           6133 	.dw	0,(Sstm8s_uart1$UART1_Init$154)
      000110 00 00r02rE5           6134 	.dw	0,(Sstm8s_uart1$UART1_Init$158)
      000114 06                    6135 	.uleb128	6
      000115 02                    6136 	.db	2
      000116 91                    6137 	.db	145
      000117 73                    6138 	.sleb128	-13
      000118 42 61 75 64 52 61 74  6139 	.ascii "BaudRate_Mantissa"
             65 5F 4D 61 6E 74 69
             73 73 61
      000129 00                    6140 	.db	0
      00012A 00 00 01 59           6141 	.dw	0,345
      00012E 06                    6142 	.uleb128	6
      00012F 0F                    6143 	.db	15
      000130 91                    6144 	.db	145
      000131 77                    6145 	.sleb128	-9
      000132 93                    6146 	.db	147
      000133 01                    6147 	.uleb128	1
      000134 50                    6148 	.db	80
      000135 93                    6149 	.db	147
      000136 01                    6150 	.uleb128	1
      000137 91                    6151 	.db	145
      000138 79                    6152 	.sleb128	-7
      000139 93                    6153 	.db	147
      00013A 01                    6154 	.uleb128	1
      00013B 91                    6155 	.db	145
      00013C 7A                    6156 	.sleb128	-6
      00013D 93                    6157 	.db	147
      00013E 01                    6158 	.uleb128	1
      00013F 42 61 75 64 52 61 74  6159 	.ascii "BaudRate_Mantissa100"
             65 5F 4D 61 6E 74 69
             73 73 61 31 30 30
      000153 00                    6160 	.db	0
      000154 00 00 01 59           6161 	.dw	0,345
      000158 00                    6162 	.uleb128	0
      000159 07                    6163 	.uleb128	7
      00015A 75 6E 73 69 67 6E 65  6164 	.ascii "unsigned long"
             64 20 6C 6F 6E 67
      000167 00                    6165 	.db	0
      000168 04                    6166 	.db	4
      000169 07                    6167 	.db	7
      00016A 07                    6168 	.uleb128	7
      00016B 75 6E 73 69 67 6E 65  6169 	.ascii "unsigned char"
             64 20 63 68 61 72
      000178 00                    6170 	.db	0
      000179 01                    6171 	.db	1
      00017A 08                    6172 	.db	8
      00017B 03                    6173 	.uleb128	3
      00017C 00 00 01 BB           6174 	.dw	0,443
      000180 55 41 52 54 31 5F 43  6175 	.ascii "UART1_Cmd"
             6D 64
      000189 00                    6176 	.db	0
      00018A 00 00r02rE8           6177 	.dw	0,(_UART1_Cmd)
      00018E 00 00r03r00           6178 	.dw	0,(XG$UART1_Cmd$0$0+1)
      000192 01                    6179 	.db	1
      000193 00 00r09r8C           6180 	.dw	0,(Ldebug_loc_start+2444)
      000197 04                    6181 	.uleb128	4
      000198 02                    6182 	.db	2
      000199 91                    6183 	.db	145
      00019A 02                    6184 	.sleb128	2
      00019B 4E 65 77 53 74 61 74  6185 	.ascii "NewState"
             65
      0001A3 00                    6186 	.db	0
      0001A4 00 00 01 6A           6187 	.dw	0,362
      0001A8 05                    6188 	.uleb128	5
      0001A9 00 00r02rF2           6189 	.dw	0,(Sstm8s_uart1$UART1_Cmd$167)
      0001AD 00 00r02rF7           6190 	.dw	0,(Sstm8s_uart1$UART1_Cmd$169)
      0001B1 05                    6191 	.uleb128	5
      0001B2 00 00r02rFA           6192 	.dw	0,(Sstm8s_uart1$UART1_Cmd$170)
      0001B6 00 00r02rFF           6193 	.dw	0,(Sstm8s_uart1$UART1_Cmd$172)
      0001BA 00                    6194 	.uleb128	0
      0001BB 03                    6195 	.uleb128	3
      0001BC 00 00 02 66           6196 	.dw	0,614
      0001C0 55 41 52 54 31 5F 49  6197 	.ascii "UART1_ITConfig"
             54 43 6F 6E 66 69 67
      0001CE 00                    6198 	.db	0
      0001CF 00 00r03r00           6199 	.dw	0,(_UART1_ITConfig)
      0001D3 00 00r03rF9           6200 	.dw	0,(XG$UART1_ITConfig$0$0+1)
      0001D7 01                    6201 	.db	1
      0001D8 00 00r07rEC           6202 	.dw	0,(Ldebug_loc_start+2028)
      0001DC 04                    6203 	.uleb128	4
      0001DD 02                    6204 	.db	2
      0001DE 91                    6205 	.db	145
      0001DF 02                    6206 	.sleb128	2
      0001E0 55 41 52 54 31 5F 49  6207 	.ascii "UART1_IT"
             54
      0001E8 00                    6208 	.db	0
      0001E9 00 00 02 66           6209 	.dw	0,614
      0001ED 04                    6210 	.uleb128	4
      0001EE 02                    6211 	.db	2
      0001EF 91                    6212 	.db	145
      0001F0 04                    6213 	.sleb128	4
      0001F1 4E 65 77 53 74 61 74  6214 	.ascii "NewState"
             65
      0001F9 00                    6215 	.db	0
      0001FA 00 00 01 6A           6216 	.dw	0,362
      0001FE 08                    6217 	.uleb128	8
      0001FF 00 00 02 23           6218 	.dw	0,547
      000203 00 00r03r9A           6219 	.dw	0,(Sstm8s_uart1$UART1_ITConfig$215)
      000207 05                    6220 	.uleb128	5
      000208 00 00r03rA1           6221 	.dw	0,(Sstm8s_uart1$UART1_ITConfig$217)
      00020C 00 00r03rA9           6222 	.dw	0,(Sstm8s_uart1$UART1_ITConfig$219)
      000210 05                    6223 	.uleb128	5
      000211 00 00r03rB2           6224 	.dw	0,(Sstm8s_uart1$UART1_ITConfig$221)
      000215 00 00r03rBA           6225 	.dw	0,(Sstm8s_uart1$UART1_ITConfig$223)
      000219 05                    6226 	.uleb128	5
      00021A 00 00r03rBD           6227 	.dw	0,(Sstm8s_uart1$UART1_ITConfig$224)
      00021E 00 00r03rC5           6228 	.dw	0,(Sstm8s_uart1$UART1_ITConfig$226)
      000222 00                    6229 	.uleb128	0
      000223 08                    6230 	.uleb128	8
      000224 00 00 02 48           6231 	.dw	0,584
      000228 00 00r03rCC           6232 	.dw	0,(Sstm8s_uart1$UART1_ITConfig$230)
      00022C 05                    6233 	.uleb128	5
      00022D 00 00r03rD3           6234 	.dw	0,(Sstm8s_uart1$UART1_ITConfig$232)
      000231 00 00r03rDB           6235 	.dw	0,(Sstm8s_uart1$UART1_ITConfig$234)
      000235 05                    6236 	.uleb128	5
      000236 00 00r03rE4           6237 	.dw	0,(Sstm8s_uart1$UART1_ITConfig$236)
      00023A 00 00r03rEC           6238 	.dw	0,(Sstm8s_uart1$UART1_ITConfig$238)
      00023E 05                    6239 	.uleb128	5
      00023F 00 00r03rEF           6240 	.dw	0,(Sstm8s_uart1$UART1_ITConfig$239)
      000243 00 00r03rF7           6241 	.dw	0,(Sstm8s_uart1$UART1_ITConfig$241)
      000247 00                    6242 	.uleb128	0
      000248 06                    6243 	.uleb128	6
      000249 01                    6244 	.db	1
      00024A 52                    6245 	.db	82
      00024B 75 61 72 74 72 65 67  6246 	.ascii "uartreg"
      000252 00                    6247 	.db	0
      000253 00 00 01 6A           6248 	.dw	0,362
      000257 06                    6249 	.uleb128	6
      000258 02                    6250 	.db	2
      000259 91                    6251 	.db	145
      00025A 7F                    6252 	.sleb128	-1
      00025B 69 74 70 6F 73        6253 	.ascii "itpos"
      000260 00                    6254 	.db	0
      000261 00 00 01 6A           6255 	.dw	0,362
      000265 00                    6256 	.uleb128	0
      000266 07                    6257 	.uleb128	7
      000267 75 6E 73 69 67 6E 65  6258 	.ascii "unsigned int"
             64 20 69 6E 74
      000273 00                    6259 	.db	0
      000274 02                    6260 	.db	2
      000275 07                    6261 	.db	7
      000276 03                    6262 	.uleb128	3
      000277 00 00 02 C0           6263 	.dw	0,704
      00027B 55 41 52 54 31 5F 48  6264 	.ascii "UART1_HalfDuplexCmd"
             61 6C 66 44 75 70 6C
             65 78 43 6D 64
      00028E 00                    6265 	.db	0
      00028F 00 00r03rF9           6266 	.dw	0,(_UART1_HalfDuplexCmd)
      000293 00 00r04r2F           6267 	.dw	0,(XG$UART1_HalfDuplexCmd$0$0+1)
      000297 01                    6268 	.db	1
      000298 00 00r07r84           6269 	.dw	0,(Ldebug_loc_start+1924)
      00029C 04                    6270 	.uleb128	4
      00029D 02                    6271 	.db	2
      00029E 91                    6272 	.db	145
      00029F 02                    6273 	.sleb128	2
      0002A0 4E 65 77 53 74 61 74  6274 	.ascii "NewState"
             65
      0002A8 00                    6275 	.db	0
      0002A9 00 00 01 6A           6276 	.dw	0,362
      0002AD 05                    6277 	.uleb128	5
      0002AE 00 00r04r21           6278 	.dw	0,(Sstm8s_uart1$UART1_HalfDuplexCmd$258)
      0002B2 00 00r04r26           6279 	.dw	0,(Sstm8s_uart1$UART1_HalfDuplexCmd$260)
      0002B6 05                    6280 	.uleb128	5
      0002B7 00 00r04r29           6281 	.dw	0,(Sstm8s_uart1$UART1_HalfDuplexCmd$261)
      0002BB 00 00r04r2E           6282 	.dw	0,(Sstm8s_uart1$UART1_HalfDuplexCmd$263)
      0002BF 00                    6283 	.uleb128	0
      0002C0 03                    6284 	.uleb128	3
      0002C1 00 00 03 0D           6285 	.dw	0,781
      0002C5 55 41 52 54 31 5F 49  6286 	.ascii "UART1_IrDAConfig"
             72 44 41 43 6F 6E 66
             69 67
      0002D5 00                    6287 	.db	0
      0002D6 00 00r04r2F           6288 	.dw	0,(_UART1_IrDAConfig)
      0002DA 00 00r04r65           6289 	.dw	0,(XG$UART1_IrDAConfig$0$0+1)
      0002DE 01                    6290 	.db	1
      0002DF 00 00r07r1C           6291 	.dw	0,(Ldebug_loc_start+1820)
      0002E3 04                    6292 	.uleb128	4
      0002E4 02                    6293 	.db	2
      0002E5 91                    6294 	.db	145
      0002E6 02                    6295 	.sleb128	2
      0002E7 55 41 52 54 31 5F 49  6296 	.ascii "UART1_IrDAMode"
             72 44 41 4D 6F 64 65
      0002F5 00                    6297 	.db	0
      0002F6 00 00 01 6A           6298 	.dw	0,362
      0002FA 05                    6299 	.uleb128	5
      0002FB 00 00r04r57           6300 	.dw	0,(Sstm8s_uart1$UART1_IrDAConfig$279)
      0002FF 00 00r04r5C           6301 	.dw	0,(Sstm8s_uart1$UART1_IrDAConfig$281)
      000303 05                    6302 	.uleb128	5
      000304 00 00r04r5F           6303 	.dw	0,(Sstm8s_uart1$UART1_IrDAConfig$282)
      000308 00 00r04r64           6304 	.dw	0,(Sstm8s_uart1$UART1_IrDAConfig$284)
      00030C 00                    6305 	.uleb128	0
      00030D 03                    6306 	.uleb128	3
      00030E 00 00 03 51           6307 	.dw	0,849
      000312 55 41 52 54 31 5F 49  6308 	.ascii "UART1_IrDACmd"
             72 44 41 43 6D 64
      00031F 00                    6309 	.db	0
      000320 00 00r04r65           6310 	.dw	0,(_UART1_IrDACmd)
      000324 00 00r04r9B           6311 	.dw	0,(XG$UART1_IrDACmd$0$0+1)
      000328 01                    6312 	.db	1
      000329 00 00r06rB4           6313 	.dw	0,(Ldebug_loc_start+1716)
      00032D 04                    6314 	.uleb128	4
      00032E 02                    6315 	.db	2
      00032F 91                    6316 	.db	145
      000330 02                    6317 	.sleb128	2
      000331 4E 65 77 53 74 61 74  6318 	.ascii "NewState"
             65
      000339 00                    6319 	.db	0
      00033A 00 00 01 6A           6320 	.dw	0,362
      00033E 05                    6321 	.uleb128	5
      00033F 00 00r04r8D           6322 	.dw	0,(Sstm8s_uart1$UART1_IrDACmd$300)
      000343 00 00r04r92           6323 	.dw	0,(Sstm8s_uart1$UART1_IrDACmd$302)
      000347 05                    6324 	.uleb128	5
      000348 00 00r04r95           6325 	.dw	0,(Sstm8s_uart1$UART1_IrDACmd$303)
      00034C 00 00r04r9A           6326 	.dw	0,(Sstm8s_uart1$UART1_IrDACmd$305)
      000350 00                    6327 	.uleb128	0
      000351 03                    6328 	.uleb128	3
      000352 00 00 03 BA           6329 	.dw	0,954
      000356 55 41 52 54 31 5F 4C  6330 	.ascii "UART1_LINBreakDetectionConfig"
             49 4E 42 72 65 61 6B
             44 65 74 65 63 74 69
             6F 6E 43 6F 6E 66 69
             67
      000373 00                    6331 	.db	0
      000374 00 00r04r9B           6332 	.dw	0,(_UART1_LINBreakDetectionConfig)
      000378 00 00r04rD1           6333 	.dw	0,(XG$UART1_LINBreakDetectionConfig$0$0+1)
      00037C 01                    6334 	.db	1
      00037D 00 00r06r4C           6335 	.dw	0,(Ldebug_loc_start+1612)
      000381 04                    6336 	.uleb128	4
      000382 02                    6337 	.db	2
      000383 91                    6338 	.db	145
      000384 02                    6339 	.sleb128	2
      000385 55 41 52 54 31 5F 4C  6340 	.ascii "UART1_LINBreakDetectionLength"
             49 4E 42 72 65 61 6B
             44 65 74 65 63 74 69
             6F 6E 4C 65 6E 67 74
             68
      0003A2 00                    6341 	.db	0
      0003A3 00 00 01 6A           6342 	.dw	0,362
      0003A7 05                    6343 	.uleb128	5
      0003A8 00 00r04rC3           6344 	.dw	0,(Sstm8s_uart1$UART1_LINBreakDetectionConfig$321)
      0003AC 00 00r04rC8           6345 	.dw	0,(Sstm8s_uart1$UART1_LINBreakDetectionConfig$323)
      0003B0 05                    6346 	.uleb128	5
      0003B1 00 00r04rCB           6347 	.dw	0,(Sstm8s_uart1$UART1_LINBreakDetectionConfig$324)
      0003B5 00 00r04rD0           6348 	.dw	0,(Sstm8s_uart1$UART1_LINBreakDetectionConfig$326)
      0003B9 00                    6349 	.uleb128	0
      0003BA 03                    6350 	.uleb128	3
      0003BB 00 00 03 FD           6351 	.dw	0,1021
      0003BF 55 41 52 54 31 5F 4C  6352 	.ascii "UART1_LINCmd"
             49 4E 43 6D 64
      0003CB 00                    6353 	.db	0
      0003CC 00 00r04rD1           6354 	.dw	0,(_UART1_LINCmd)
      0003D0 00 00r05r07           6355 	.dw	0,(XG$UART1_LINCmd$0$0+1)
      0003D4 01                    6356 	.db	1
      0003D5 00 00r05rE4           6357 	.dw	0,(Ldebug_loc_start+1508)
      0003D9 04                    6358 	.uleb128	4
      0003DA 02                    6359 	.db	2
      0003DB 91                    6360 	.db	145
      0003DC 02                    6361 	.sleb128	2
      0003DD 4E 65 77 53 74 61 74  6362 	.ascii "NewState"
             65
      0003E5 00                    6363 	.db	0
      0003E6 00 00 01 6A           6364 	.dw	0,362
      0003EA 05                    6365 	.uleb128	5
      0003EB 00 00r04rF9           6366 	.dw	0,(Sstm8s_uart1$UART1_LINCmd$342)
      0003EF 00 00r04rFE           6367 	.dw	0,(Sstm8s_uart1$UART1_LINCmd$344)
      0003F3 05                    6368 	.uleb128	5
      0003F4 00 00r05r01           6369 	.dw	0,(Sstm8s_uart1$UART1_LINCmd$345)
      0003F8 00 00r05r06           6370 	.dw	0,(Sstm8s_uart1$UART1_LINCmd$347)
      0003FC 00                    6371 	.uleb128	0
      0003FD 03                    6372 	.uleb128	3
      0003FE 00 00 04 46           6373 	.dw	0,1094
      000402 55 41 52 54 31 5F 53  6374 	.ascii "UART1_SmartCardCmd"
             6D 61 72 74 43 61 72
             64 43 6D 64
      000414 00                    6375 	.db	0
      000415 00 00r05r07           6376 	.dw	0,(_UART1_SmartCardCmd)
      000419 00 00r05r3D           6377 	.dw	0,(XG$UART1_SmartCardCmd$0$0+1)
      00041D 01                    6378 	.db	1
      00041E 00 00r05r7C           6379 	.dw	0,(Ldebug_loc_start+1404)
      000422 04                    6380 	.uleb128	4
      000423 02                    6381 	.db	2
      000424 91                    6382 	.db	145
      000425 02                    6383 	.sleb128	2
      000426 4E 65 77 53 74 61 74  6384 	.ascii "NewState"
             65
      00042E 00                    6385 	.db	0
      00042F 00 00 01 6A           6386 	.dw	0,362
      000433 05                    6387 	.uleb128	5
      000434 00 00r05r2F           6388 	.dw	0,(Sstm8s_uart1$UART1_SmartCardCmd$363)
      000438 00 00r05r34           6389 	.dw	0,(Sstm8s_uart1$UART1_SmartCardCmd$365)
      00043C 05                    6390 	.uleb128	5
      00043D 00 00r05r37           6391 	.dw	0,(Sstm8s_uart1$UART1_SmartCardCmd$366)
      000441 00 00r05r3C           6392 	.dw	0,(Sstm8s_uart1$UART1_SmartCardCmd$368)
      000445 00                    6393 	.uleb128	0
      000446 03                    6394 	.uleb128	3
      000447 00 00 04 93           6395 	.dw	0,1171
      00044B 55 41 52 54 31 5F 53  6396 	.ascii "UART1_SmartCardNACKCmd"
             6D 61 72 74 43 61 72
             64 4E 41 43 4B 43 6D
             64
      000461 00                    6397 	.db	0
      000462 00 00r05r3D           6398 	.dw	0,(_UART1_SmartCardNACKCmd)
      000466 00 00r05r73           6399 	.dw	0,(XG$UART1_SmartCardNACKCmd$0$0+1)
      00046A 01                    6400 	.db	1
      00046B 00 00r05r14           6401 	.dw	0,(Ldebug_loc_start+1300)
      00046F 04                    6402 	.uleb128	4
      000470 02                    6403 	.db	2
      000471 91                    6404 	.db	145
      000472 02                    6405 	.sleb128	2
      000473 4E 65 77 53 74 61 74  6406 	.ascii "NewState"
             65
      00047B 00                    6407 	.db	0
      00047C 00 00 01 6A           6408 	.dw	0,362
      000480 05                    6409 	.uleb128	5
      000481 00 00r05r65           6410 	.dw	0,(Sstm8s_uart1$UART1_SmartCardNACKCmd$384)
      000485 00 00r05r6A           6411 	.dw	0,(Sstm8s_uart1$UART1_SmartCardNACKCmd$386)
      000489 05                    6412 	.uleb128	5
      00048A 00 00r05r6D           6413 	.dw	0,(Sstm8s_uart1$UART1_SmartCardNACKCmd$387)
      00048E 00 00r05r72           6414 	.dw	0,(Sstm8s_uart1$UART1_SmartCardNACKCmd$389)
      000492 00                    6415 	.uleb128	0
      000493 03                    6416 	.uleb128	3
      000494 00 00 04 CE           6417 	.dw	0,1230
      000498 55 41 52 54 31 5F 57  6418 	.ascii "UART1_WakeUpConfig"
             61 6B 65 55 70 43 6F
             6E 66 69 67
      0004AA 00                    6419 	.db	0
      0004AB 00 00r05r73           6420 	.dw	0,(_UART1_WakeUpConfig)
      0004AF 00 00r05rA3           6421 	.dw	0,(XG$UART1_WakeUpConfig$0$0+1)
      0004B3 01                    6422 	.db	1
      0004B4 00 00r04rAC           6423 	.dw	0,(Ldebug_loc_start+1196)
      0004B8 04                    6424 	.uleb128	4
      0004B9 02                    6425 	.db	2
      0004BA 91                    6426 	.db	145
      0004BB 02                    6427 	.sleb128	2
      0004BC 55 41 52 54 31 5F 57  6428 	.ascii "UART1_WakeUp"
             61 6B 65 55 70
      0004C8 00                    6429 	.db	0
      0004C9 00 00 01 6A           6430 	.dw	0,362
      0004CD 00                    6431 	.uleb128	0
      0004CE 03                    6432 	.uleb128	3
      0004CF 00 00 05 1C           6433 	.dw	0,1308
      0004D3 55 41 52 54 31 5F 52  6434 	.ascii "UART1_ReceiverWakeUpCmd"
             65 63 65 69 76 65 72
             57 61 6B 65 55 70 43
             6D 64
      0004EA 00                    6435 	.db	0
      0004EB 00 00r05rA3           6436 	.dw	0,(_UART1_ReceiverWakeUpCmd)
      0004EF 00 00r05rD9           6437 	.dw	0,(XG$UART1_ReceiverWakeUpCmd$0$0+1)
      0004F3 01                    6438 	.db	1
      0004F4 00 00r04r44           6439 	.dw	0,(Ldebug_loc_start+1092)
      0004F8 04                    6440 	.uleb128	4
      0004F9 02                    6441 	.db	2
      0004FA 91                    6442 	.db	145
      0004FB 02                    6443 	.sleb128	2
      0004FC 4E 65 77 53 74 61 74  6444 	.ascii "NewState"
             65
      000504 00                    6445 	.db	0
      000505 00 00 01 6A           6446 	.dw	0,362
      000509 05                    6447 	.uleb128	5
      00050A 00 00r05rCB           6448 	.dw	0,(Sstm8s_uart1$UART1_ReceiverWakeUpCmd$420)
      00050E 00 00r05rD0           6449 	.dw	0,(Sstm8s_uart1$UART1_ReceiverWakeUpCmd$422)
      000512 05                    6450 	.uleb128	5
      000513 00 00r05rD3           6451 	.dw	0,(Sstm8s_uart1$UART1_ReceiverWakeUpCmd$423)
      000517 00 00r05rD8           6452 	.dw	0,(Sstm8s_uart1$UART1_ReceiverWakeUpCmd$425)
      00051B 00                    6453 	.uleb128	0
      00051C 09                    6454 	.uleb128	9
      00051D 55 41 52 54 31 5F 52  6455 	.ascii "UART1_ReceiveData8"
             65 63 65 69 76 65 44
             61 74 61 38
      00052F 00                    6456 	.db	0
      000530 00 00r05rD9           6457 	.dw	0,(_UART1_ReceiveData8)
      000534 00 00r05rDD           6458 	.dw	0,(XG$UART1_ReceiveData8$0$0+1)
      000538 01                    6459 	.db	1
      000539 00 00r04r30           6460 	.dw	0,(Ldebug_loc_start+1072)
      00053D 00 00 01 6A           6461 	.dw	0,362
      000541 07                    6462 	.uleb128	7
      000542 75 6E 73 69 67 6E 65  6463 	.ascii "unsigned int"
             64 20 69 6E 74
      00054E 00                    6464 	.db	0
      00054F 02                    6465 	.db	2
      000550 07                    6466 	.db	7
      000551 0A                    6467 	.uleb128	10
      000552 00 00 05 88           6468 	.dw	0,1416
      000556 55 41 52 54 31 5F 52  6469 	.ascii "UART1_ReceiveData9"
             65 63 65 69 76 65 44
             61 74 61 39
      000568 00                    6470 	.db	0
      000569 00 00r05rDD           6471 	.dw	0,(_UART1_ReceiveData9)
      00056D 00 00r05rFA           6472 	.dw	0,(XG$UART1_ReceiveData9$0$0+1)
      000571 01                    6473 	.db	1
      000572 00 00r04r04           6474 	.dw	0,(Ldebug_loc_start+1028)
      000576 00 00 05 41           6475 	.dw	0,1345
      00057A 06                    6476 	.uleb128	6
      00057B 02                    6477 	.db	2
      00057C 91                    6478 	.db	145
      00057D 7E                    6479 	.sleb128	-2
      00057E 74 65 6D 70           6480 	.ascii "temp"
      000582 00                    6481 	.db	0
      000583 00 00 05 41           6482 	.dw	0,1345
      000587 00                    6483 	.uleb128	0
      000588 03                    6484 	.uleb128	3
      000589 00 00 05 B8           6485 	.dw	0,1464
      00058D 55 41 52 54 31 5F 53  6486 	.ascii "UART1_SendData8"
             65 6E 64 44 61 74 61
             38
      00059C 00                    6487 	.db	0
      00059D 00 00r05rFA           6488 	.dw	0,(_UART1_SendData8)
      0005A1 00 00r06r01           6489 	.dw	0,(XG$UART1_SendData8$0$0+1)
      0005A5 01                    6490 	.db	1
      0005A6 00 00r03rF0           6491 	.dw	0,(Ldebug_loc_start+1008)
      0005AA 04                    6492 	.uleb128	4
      0005AB 02                    6493 	.db	2
      0005AC 91                    6494 	.db	145
      0005AD 02                    6495 	.sleb128	2
      0005AE 44 61 74 61           6496 	.ascii "Data"
      0005B2 00                    6497 	.db	0
      0005B3 00 00 01 6A           6498 	.dw	0,362
      0005B7 00                    6499 	.uleb128	0
      0005B8 03                    6500 	.uleb128	3
      0005B9 00 00 05 E8           6501 	.dw	0,1512
      0005BD 55 41 52 54 31 5F 53  6502 	.ascii "UART1_SendData9"
             65 6E 64 44 61 74 61
             39
      0005CC 00                    6503 	.db	0
      0005CD 00 00r06r01           6504 	.dw	0,(_UART1_SendData9)
      0005D1 00 00r06r22           6505 	.dw	0,(XG$UART1_SendData9$0$0+1)
      0005D5 01                    6506 	.db	1
      0005D6 00 00r03rC4           6507 	.dw	0,(Ldebug_loc_start+964)
      0005DA 04                    6508 	.uleb128	4
      0005DB 02                    6509 	.db	2
      0005DC 91                    6510 	.db	145
      0005DD 02                    6511 	.sleb128	2
      0005DE 44 61 74 61           6512 	.ascii "Data"
      0005E2 00                    6513 	.db	0
      0005E3 00 00 05 41           6514 	.dw	0,1345
      0005E7 00                    6515 	.uleb128	0
      0005E8 02                    6516 	.uleb128	2
      0005E9 55 41 52 54 31 5F 53  6517 	.ascii "UART1_SendBreak"
             65 6E 64 42 72 65 61
             6B
      0005F8 00                    6518 	.db	0
      0005F9 00 00r06r22           6519 	.dw	0,(_UART1_SendBreak)
      0005FD 00 00r06r2B           6520 	.dw	0,(XG$UART1_SendBreak$0$0+1)
      000601 01                    6521 	.db	1
      000602 00 00r03rB0           6522 	.dw	0,(Ldebug_loc_start+944)
      000606 03                    6523 	.uleb128	3
      000607 00 00 06 40           6524 	.dw	0,1600
      00060B 55 41 52 54 31 5F 53  6525 	.ascii "UART1_SetAddress"
             65 74 41 64 64 72 65
             73 73
      00061B 00                    6526 	.db	0
      00061C 00 00r06r2B           6527 	.dw	0,(_UART1_SetAddress)
      000620 00 00r06r54           6528 	.dw	0,(XG$UART1_SetAddress$0$0+1)
      000624 01                    6529 	.db	1
      000625 00 00r03r54           6530 	.dw	0,(Ldebug_loc_start+852)
      000629 04                    6531 	.uleb128	4
      00062A 02                    6532 	.db	2
      00062B 91                    6533 	.db	145
      00062C 02                    6534 	.sleb128	2
      00062D 55 41 52 54 31 5F 41  6535 	.ascii "UART1_Address"
             64 64 72 65 73 73
      00063A 00                    6536 	.db	0
      00063B 00 00 01 6A           6537 	.dw	0,362
      00063F 00                    6538 	.uleb128	0
      000640 03                    6539 	.uleb128	3
      000641 00 00 06 7E           6540 	.dw	0,1662
      000645 55 41 52 54 31 5F 53  6541 	.ascii "UART1_SetGuardTime"
             65 74 47 75 61 72 64
             54 69 6D 65
      000657 00                    6542 	.db	0
      000658 00 00r06r54           6543 	.dw	0,(_UART1_SetGuardTime)
      00065C 00 00r06r5B           6544 	.dw	0,(XG$UART1_SetGuardTime$0$0+1)
      000660 01                    6545 	.db	1
      000661 00 00r03r40           6546 	.dw	0,(Ldebug_loc_start+832)
      000665 04                    6547 	.uleb128	4
      000666 02                    6548 	.db	2
      000667 91                    6549 	.db	145
      000668 02                    6550 	.sleb128	2
      000669 55 41 52 54 31 5F 47  6551 	.ascii "UART1_GuardTime"
             75 61 72 64 54 69 6D
             65
      000678 00                    6552 	.db	0
      000679 00 00 01 6A           6553 	.dw	0,362
      00067D 00                    6554 	.uleb128	0
      00067E 03                    6555 	.uleb128	3
      00067F 00 00 06 BC           6556 	.dw	0,1724
      000683 55 41 52 54 31 5F 53  6557 	.ascii "UART1_SetPrescaler"
             65 74 50 72 65 73 63
             61 6C 65 72
      000695 00                    6558 	.db	0
      000696 00 00r06r5B           6559 	.dw	0,(_UART1_SetPrescaler)
      00069A 00 00r06r62           6560 	.dw	0,(XG$UART1_SetPrescaler$0$0+1)
      00069E 01                    6561 	.db	1
      00069F 00 00r03r2C           6562 	.dw	0,(Ldebug_loc_start+812)
      0006A3 04                    6563 	.uleb128	4
      0006A4 02                    6564 	.db	2
      0006A5 91                    6565 	.db	145
      0006A6 02                    6566 	.sleb128	2
      0006A7 55 41 52 54 31 5F 50  6567 	.ascii "UART1_Prescaler"
             72 65 73 63 61 6C 65
             72
      0006B6 00                    6568 	.db	0
      0006B7 00 00 01 6A           6569 	.dw	0,362
      0006BB 00                    6570 	.uleb128	0
      0006BC 0A                    6571 	.uleb128	10
      0006BD 00 00 07 5C           6572 	.dw	0,1884
      0006C1 55 41 52 54 31 5F 47  6573 	.ascii "UART1_GetFlagStatus"
             65 74 46 6C 61 67 53
             74 61 74 75 73
      0006D4 00                    6574 	.db	0
      0006D5 00 00r06r62           6575 	.dw	0,(_UART1_GetFlagStatus)
      0006D9 00 00r07r29           6576 	.dw	0,(XG$UART1_GetFlagStatus$0$0+1)
      0006DD 01                    6577 	.db	1
      0006DE 00 00r02r10           6578 	.dw	0,(Ldebug_loc_start+528)
      0006E2 00 00 01 6A           6579 	.dw	0,362
      0006E6 04                    6580 	.uleb128	4
      0006E7 02                    6581 	.db	2
      0006E8 91                    6582 	.db	145
      0006E9 02                    6583 	.sleb128	2
      0006EA 55 41 52 54 31 5F 46  6584 	.ascii "UART1_FLAG"
             4C 41 47
      0006F4 00                    6585 	.db	0
      0006F5 00 00 02 66           6586 	.dw	0,614
      0006F9 08                    6587 	.uleb128	8
      0006FA 00 00 07 15           6588 	.dw	0,1813
      0006FE 00 00r06rE6           6589 	.dw	0,(Sstm8s_uart1$UART1_GetFlagStatus$518)
      000702 05                    6590 	.uleb128	5
      000703 00 00r06rF1           6591 	.dw	0,(Sstm8s_uart1$UART1_GetFlagStatus$520)
      000707 00 00r06rF3           6592 	.dw	0,(Sstm8s_uart1$UART1_GetFlagStatus$522)
      00070B 05                    6593 	.uleb128	5
      00070C 00 00r06rF6           6594 	.dw	0,(Sstm8s_uart1$UART1_GetFlagStatus$523)
      000710 00 00r06rF7           6595 	.dw	0,(Sstm8s_uart1$UART1_GetFlagStatus$525)
      000714 00                    6596 	.uleb128	0
      000715 08                    6597 	.uleb128	8
      000716 00 00 07 31           6598 	.dw	0,1841
      00071A 00 00r07r02           6599 	.dw	0,(Sstm8s_uart1$UART1_GetFlagStatus$527)
      00071E 05                    6600 	.uleb128	5
      00071F 00 00r07r0D           6601 	.dw	0,(Sstm8s_uart1$UART1_GetFlagStatus$529)
      000723 00 00r07r0F           6602 	.dw	0,(Sstm8s_uart1$UART1_GetFlagStatus$531)
      000727 05                    6603 	.uleb128	5
      000728 00 00r07r12           6604 	.dw	0,(Sstm8s_uart1$UART1_GetFlagStatus$532)
      00072C 00 00r07r13           6605 	.dw	0,(Sstm8s_uart1$UART1_GetFlagStatus$534)
      000730 00                    6606 	.uleb128	0
      000731 08                    6607 	.uleb128	8
      000732 00 00 07 4D           6608 	.dw	0,1869
      000736 00 00r07r16           6609 	.dw	0,(Sstm8s_uart1$UART1_GetFlagStatus$535)
      00073A 05                    6610 	.uleb128	5
      00073B 00 00r07r21           6611 	.dw	0,(Sstm8s_uart1$UART1_GetFlagStatus$537)
      00073F 00 00r07r23           6612 	.dw	0,(Sstm8s_uart1$UART1_GetFlagStatus$539)
      000743 05                    6613 	.uleb128	5
      000744 00 00r07r26           6614 	.dw	0,(Sstm8s_uart1$UART1_GetFlagStatus$540)
      000748 00 00r07r27           6615 	.dw	0,(Sstm8s_uart1$UART1_GetFlagStatus$542)
      00074C 00                    6616 	.uleb128	0
      00074D 06                    6617 	.uleb128	6
      00074E 01                    6618 	.db	1
      00074F 50                    6619 	.db	80
      000750 73 74 61 74 75 73     6620 	.ascii "status"
      000756 00                    6621 	.db	0
      000757 00 00 01 6A           6622 	.dw	0,362
      00075B 00                    6623 	.uleb128	0
      00075C 03                    6624 	.uleb128	3
      00075D 00 00 07 A4           6625 	.dw	0,1956
      000761 55 41 52 54 31 5F 43  6626 	.ascii "UART1_ClearFlag"
             6C 65 61 72 46 6C 61
             67
      000770 00                    6627 	.db	0
      000771 00 00r07r29           6628 	.dw	0,(_UART1_ClearFlag)
      000775 00 00r07r6B           6629 	.dw	0,(XG$UART1_ClearFlag$0$0+1)
      000779 01                    6630 	.db	1
      00077A 00 00r01r84           6631 	.dw	0,(Ldebug_loc_start+388)
      00077E 04                    6632 	.uleb128	4
      00077F 02                    6633 	.db	2
      000780 91                    6634 	.db	145
      000781 02                    6635 	.sleb128	2
      000782 55 41 52 54 31 5F 46  6636 	.ascii "UART1_FLAG"
             4C 41 47
      00078C 00                    6637 	.db	0
      00078D 00 00 02 66           6638 	.dw	0,614
      000791 05                    6639 	.uleb128	5
      000792 00 00r07r5B           6640 	.dw	0,(Sstm8s_uart1$UART1_ClearFlag$562)
      000796 00 00r07r5F           6641 	.dw	0,(Sstm8s_uart1$UART1_ClearFlag$564)
      00079A 05                    6642 	.uleb128	5
      00079B 00 00r07r62           6643 	.dw	0,(Sstm8s_uart1$UART1_ClearFlag$565)
      00079F 00 00r07r6A           6644 	.dw	0,(Sstm8s_uart1$UART1_ClearFlag$567)
      0007A3 00                    6645 	.uleb128	0
      0007A4 0A                    6646 	.uleb128	10
      0007A5 00 00 08 8B           6647 	.dw	0,2187
      0007A9 55 41 52 54 31 5F 47  6648 	.ascii "UART1_GetITStatus"
             65 74 49 54 53 74 61
             74 75 73
      0007BA 00                    6649 	.db	0
      0007BB 00 00r07r6B           6650 	.dw	0,(_UART1_GetITStatus)
      0007BF 00 00r08r69           6651 	.dw	0,(XG$UART1_GetITStatus$0$0+1)
      0007C3 01                    6652 	.db	1
      0007C4 00 00r00r8C           6653 	.dw	0,(Ldebug_loc_start+140)
      0007C8 00 00 01 6A           6654 	.dw	0,362
      0007CC 04                    6655 	.uleb128	4
      0007CD 02                    6656 	.db	2
      0007CE 91                    6657 	.db	145
      0007CF 02                    6658 	.sleb128	2
      0007D0 55 41 52 54 31 5F 49  6659 	.ascii "UART1_IT"
             54
      0007D8 00                    6660 	.db	0
      0007D9 00 00 02 66           6661 	.dw	0,614
      0007DD 08                    6662 	.uleb128	8
      0007DE 00 00 07 F9           6663 	.dw	0,2041
      0007E2 00 00r07rFE           6664 	.dw	0,(Sstm8s_uart1$UART1_GetITStatus$596)
      0007E6 05                    6665 	.uleb128	5
      0007E7 00 00r08r16           6666 	.dw	0,(Sstm8s_uart1$UART1_GetITStatus$599)
      0007EB 00 00r08r18           6667 	.dw	0,(Sstm8s_uart1$UART1_GetITStatus$601)
      0007EF 05                    6668 	.uleb128	5
      0007F0 00 00r08r1B           6669 	.dw	0,(Sstm8s_uart1$UART1_GetITStatus$602)
      0007F4 00 00r08r1C           6670 	.dw	0,(Sstm8s_uart1$UART1_GetITStatus$604)
      0007F8 00                    6671 	.uleb128	0
      0007F9 08                    6672 	.uleb128	8
      0007FA 00 00 08 15           6673 	.dw	0,2069
      0007FE 00 00r08r27           6674 	.dw	0,(Sstm8s_uart1$UART1_GetITStatus$606)
      000802 05                    6675 	.uleb128	5
      000803 00 00r08r3F           6676 	.dw	0,(Sstm8s_uart1$UART1_GetITStatus$609)
      000807 00 00r08r41           6677 	.dw	0,(Sstm8s_uart1$UART1_GetITStatus$611)
      00080B 05                    6678 	.uleb128	5
      00080C 00 00r08r44           6679 	.dw	0,(Sstm8s_uart1$UART1_GetITStatus$612)
      000810 00 00r08r45           6680 	.dw	0,(Sstm8s_uart1$UART1_GetITStatus$614)
      000814 00                    6681 	.uleb128	0
      000815 08                    6682 	.uleb128	8
      000816 00 00 08 31           6683 	.dw	0,2097
      00081A 00 00r08r48           6684 	.dw	0,(Sstm8s_uart1$UART1_GetITStatus$615)
      00081E 05                    6685 	.uleb128	5
      00081F 00 00r08r60           6686 	.dw	0,(Sstm8s_uart1$UART1_GetITStatus$618)
      000823 00 00r08r62           6687 	.dw	0,(Sstm8s_uart1$UART1_GetITStatus$620)
      000827 05                    6688 	.uleb128	5
      000828 00 00r08r65           6689 	.dw	0,(Sstm8s_uart1$UART1_GetITStatus$621)
      00082C 00 00r08r66           6690 	.dw	0,(Sstm8s_uart1$UART1_GetITStatus$623)
      000830 00                    6691 	.uleb128	0
      000831 06                    6692 	.uleb128	6
      000832 01                    6693 	.db	1
      000833 50                    6694 	.db	80
      000834 70 65 6E 64 69 6E 67  6695 	.ascii "pendingbitstatus"
             62 69 74 73 74 61 74
             75 73
      000844 00                    6696 	.db	0
      000845 00 00 01 6A           6697 	.dw	0,362
      000849 06                    6698 	.uleb128	6
      00084A 02                    6699 	.db	2
      00084B 91                    6700 	.db	145
      00084C 7E                    6701 	.sleb128	-2
      00084D 69 74 70 6F 73        6702 	.ascii "itpos"
      000852 00                    6703 	.db	0
      000853 00 00 01 6A           6704 	.dw	0,362
      000857 06                    6705 	.uleb128	6
      000858 01                    6706 	.db	1
      000859 50                    6707 	.db	80
      00085A 69 74 6D 61 73 6B 31  6708 	.ascii "itmask1"
      000861 00                    6709 	.db	0
      000862 00 00 01 6A           6710 	.dw	0,362
      000866 06                    6711 	.uleb128	6
      000867 02                    6712 	.db	2
      000868 91                    6713 	.db	145
      000869 7F                    6714 	.sleb128	-1
      00086A 69 74 6D 61 73 6B 32  6715 	.ascii "itmask2"
      000871 00                    6716 	.db	0
      000872 00 00 01 6A           6717 	.dw	0,362
      000876 06                    6718 	.uleb128	6
      000877 01                    6719 	.db	1
      000878 51                    6720 	.db	81
      000879 65 6E 61 62 6C 65 73  6721 	.ascii "enablestatus"
             74 61 74 75 73
      000885 00                    6722 	.db	0
      000886 00 00 01 6A           6723 	.dw	0,362
      00088A 00                    6724 	.uleb128	0
      00088B 03                    6725 	.uleb128	3
      00088C 00 00 08 D9           6726 	.dw	0,2265
      000890 55 41 52 54 31 5F 43  6727 	.ascii "UART1_ClearITPendingBit"
             6C 65 61 72 49 54 50
             65 6E 64 69 6E 67 42
             69 74
      0008A7 00                    6728 	.db	0
      0008A8 00 00r08r69           6729 	.dw	0,(_UART1_ClearITPendingBit)
      0008AC 00 00r08rAB           6730 	.dw	0,(XG$UART1_ClearITPendingBit$0$0+1)
      0008B0 01                    6731 	.db	1
      0008B1 00 00r00r00           6732 	.dw	0,(Ldebug_loc_start)
      0008B5 04                    6733 	.uleb128	4
      0008B6 02                    6734 	.db	2
      0008B7 91                    6735 	.db	145
      0008B8 02                    6736 	.sleb128	2
      0008B9 55 41 52 54 31 5F 49  6737 	.ascii "UART1_IT"
             54
      0008C1 00                    6738 	.db	0
      0008C2 00 00 02 66           6739 	.dw	0,614
      0008C6 05                    6740 	.uleb128	5
      0008C7 00 00r08r9B           6741 	.dw	0,(Sstm8s_uart1$UART1_ClearITPendingBit$643)
      0008CB 00 00r08r9F           6742 	.dw	0,(Sstm8s_uart1$UART1_ClearITPendingBit$645)
      0008CF 05                    6743 	.uleb128	5
      0008D0 00 00r08rA2           6744 	.dw	0,(Sstm8s_uart1$UART1_ClearITPendingBit$646)
      0008D4 00 00r08rAA           6745 	.dw	0,(Sstm8s_uart1$UART1_ClearITPendingBit$648)
      0008D8 00                    6746 	.uleb128	0
      0008D9 0B                    6747 	.uleb128	11
      0008DA 00 00 01 6A           6748 	.dw	0,362
      0008DE 0C                    6749 	.uleb128	12
      0008DF 00 00 08 EB           6750 	.dw	0,2283
      0008E3 19                    6751 	.db	25
      0008E4 00 00 08 D9           6752 	.dw	0,2265
      0008E8 0D                    6753 	.uleb128	13
      0008E9 18                    6754 	.db	24
      0008EA 00                    6755 	.uleb128	0
      0008EB 06                    6756 	.uleb128	6
      0008EC 05                    6757 	.db	5
      0008ED 03                    6758 	.db	3
      0008EE 00 00r00r00           6759 	.dw	0,(___str_0)
      0008F2 5F 5F 73 74 72 5F 30  6760 	.ascii "__str_0"
      0008F9 00                    6761 	.db	0
      0008FA 00 00 08 DE           6762 	.dw	0,2270
      0008FE 00                    6763 	.uleb128	0
      0008FF 00                    6764 	.uleb128	0
      000900 00                    6765 	.uleb128	0
      000901                       6766 Ldebug_info_end:
                                   6767 
                                   6768 	.area .debug_pubnames (NOLOAD)
      000000 00 00 02 31           6769 	.dw	0,Ldebug_pubnames_end-Ldebug_pubnames_start
      000004                       6770 Ldebug_pubnames_start:
      000004 00 02                 6771 	.dw	2
      000006 00 00r00r00           6772 	.dw	0,(Ldebug_info_start-4)
      00000A 00 00 09 01           6773 	.dw	0,4+Ldebug_info_end-Ldebug_info_start
      00000E 00 00 00 44           6774 	.dw	0,68
      000012 55 41 52 54 31 5F 44  6775 	.ascii "UART1_DeInit"
             65 49 6E 69 74
      00001E 00                    6776 	.db	0
      00001F 00 00 00 5F           6777 	.dw	0,95
      000023 55 41 52 54 31 5F 49  6778 	.ascii "UART1_Init"
             6E 69 74
      00002D 00                    6779 	.db	0
      00002E 00 00 01 7B           6780 	.dw	0,379
      000032 55 41 52 54 31 5F 43  6781 	.ascii "UART1_Cmd"
             6D 64
      00003B 00                    6782 	.db	0
      00003C 00 00 01 BB           6783 	.dw	0,443
      000040 55 41 52 54 31 5F 49  6784 	.ascii "UART1_ITConfig"
             54 43 6F 6E 66 69 67
      00004E 00                    6785 	.db	0
      00004F 00 00 02 76           6786 	.dw	0,630
      000053 55 41 52 54 31 5F 48  6787 	.ascii "UART1_HalfDuplexCmd"
             61 6C 66 44 75 70 6C
             65 78 43 6D 64
      000066 00                    6788 	.db	0
      000067 00 00 02 C0           6789 	.dw	0,704
      00006B 55 41 52 54 31 5F 49  6790 	.ascii "UART1_IrDAConfig"
             72 44 41 43 6F 6E 66
             69 67
      00007B 00                    6791 	.db	0
      00007C 00 00 03 0D           6792 	.dw	0,781
      000080 55 41 52 54 31 5F 49  6793 	.ascii "UART1_IrDACmd"
             72 44 41 43 6D 64
      00008D 00                    6794 	.db	0
      00008E 00 00 03 51           6795 	.dw	0,849
      000092 55 41 52 54 31 5F 4C  6796 	.ascii "UART1_LINBreakDetectionConfig"
             49 4E 42 72 65 61 6B
             44 65 74 65 63 74 69
             6F 6E 43 6F 6E 66 69
             67
      0000AF 00                    6797 	.db	0
      0000B0 00 00 03 BA           6798 	.dw	0,954
      0000B4 55 41 52 54 31 5F 4C  6799 	.ascii "UART1_LINCmd"
             49 4E 43 6D 64
      0000C0 00                    6800 	.db	0
      0000C1 00 00 03 FD           6801 	.dw	0,1021
      0000C5 55 41 52 54 31 5F 53  6802 	.ascii "UART1_SmartCardCmd"
             6D 61 72 74 43 61 72
             64 43 6D 64
      0000D7 00                    6803 	.db	0
      0000D8 00 00 04 46           6804 	.dw	0,1094
      0000DC 55 41 52 54 31 5F 53  6805 	.ascii "UART1_SmartCardNACKCmd"
             6D 61 72 74 43 61 72
             64 4E 41 43 4B 43 6D
             64
      0000F2 00                    6806 	.db	0
      0000F3 00 00 04 93           6807 	.dw	0,1171
      0000F7 55 41 52 54 31 5F 57  6808 	.ascii "UART1_WakeUpConfig"
             61 6B 65 55 70 43 6F
             6E 66 69 67
      000109 00                    6809 	.db	0
      00010A 00 00 04 CE           6810 	.dw	0,1230
      00010E 55 41 52 54 31 5F 52  6811 	.ascii "UART1_ReceiverWakeUpCmd"
             65 63 65 69 76 65 72
             57 61 6B 65 55 70 43
             6D 64
      000125 00                    6812 	.db	0
      000126 00 00 05 1C           6813 	.dw	0,1308
      00012A 55 41 52 54 31 5F 52  6814 	.ascii "UART1_ReceiveData8"
             65 63 65 69 76 65 44
             61 74 61 38
      00013C 00                    6815 	.db	0
      00013D 00 00 05 51           6816 	.dw	0,1361
      000141 55 41 52 54 31 5F 52  6817 	.ascii "UART1_ReceiveData9"
             65 63 65 69 76 65 44
             61 74 61 39
      000153 00                    6818 	.db	0
      000154 00 00 05 88           6819 	.dw	0,1416
      000158 55 41 52 54 31 5F 53  6820 	.ascii "UART1_SendData8"
             65 6E 64 44 61 74 61
             38
      000167 00                    6821 	.db	0
      000168 00 00 05 B8           6822 	.dw	0,1464
      00016C 55 41 52 54 31 5F 53  6823 	.ascii "UART1_SendData9"
             65 6E 64 44 61 74 61
             39
      00017B 00                    6824 	.db	0
      00017C 00 00 05 E8           6825 	.dw	0,1512
      000180 55 41 52 54 31 5F 53  6826 	.ascii "UART1_SendBreak"
             65 6E 64 42 72 65 61
             6B
      00018F 00                    6827 	.db	0
      000190 00 00 06 06           6828 	.dw	0,1542
      000194 55 41 52 54 31 5F 53  6829 	.ascii "UART1_SetAddress"
             65 74 41 64 64 72 65
             73 73
      0001A4 00                    6830 	.db	0
      0001A5 00 00 06 40           6831 	.dw	0,1600
      0001A9 55 41 52 54 31 5F 53  6832 	.ascii "UART1_SetGuardTime"
             65 74 47 75 61 72 64
             54 69 6D 65
      0001BB 00                    6833 	.db	0
      0001BC 00 00 06 7E           6834 	.dw	0,1662
      0001C0 55 41 52 54 31 5F 53  6835 	.ascii "UART1_SetPrescaler"
             65 74 50 72 65 73 63
             61 6C 65 72
      0001D2 00                    6836 	.db	0
      0001D3 00 00 06 BC           6837 	.dw	0,1724
      0001D7 55 41 52 54 31 5F 47  6838 	.ascii "UART1_GetFlagStatus"
             65 74 46 6C 61 67 53
             74 61 74 75 73
      0001EA 00                    6839 	.db	0
      0001EB 00 00 07 5C           6840 	.dw	0,1884
      0001EF 55 41 52 54 31 5F 43  6841 	.ascii "UART1_ClearFlag"
             6C 65 61 72 46 6C 61
             67
      0001FE 00                    6842 	.db	0
      0001FF 00 00 07 A4           6843 	.dw	0,1956
      000203 55 41 52 54 31 5F 47  6844 	.ascii "UART1_GetITStatus"
             65 74 49 54 53 74 61
             74 75 73
      000214 00                    6845 	.db	0
      000215 00 00 08 8B           6846 	.dw	0,2187
      000219 55 41 52 54 31 5F 43  6847 	.ascii "UART1_ClearITPendingBit"
             6C 65 61 72 49 54 50
             65 6E 64 69 6E 67 42
             69 74
      000230 00                    6848 	.db	0
      000231 00 00 00 00           6849 	.dw	0,0
      000235                       6850 Ldebug_pubnames_end:
                                   6851 
                                   6852 	.area .debug_frame (NOLOAD)
      000000 00 00                 6853 	.dw	0
      000002 00 0E                 6854 	.dw	Ldebug_CIE0_end-Ldebug_CIE0_start
      000004                       6855 Ldebug_CIE0_start:
      000004 FF FF                 6856 	.dw	0xffff
      000006 FF FF                 6857 	.dw	0xffff
      000008 01                    6858 	.db	1
      000009 00                    6859 	.db	0
      00000A 01                    6860 	.uleb128	1
      00000B 7F                    6861 	.sleb128	-1
      00000C 09                    6862 	.db	9
      00000D 0C                    6863 	.db	12
      00000E 08                    6864 	.uleb128	8
      00000F 02                    6865 	.uleb128	2
      000010 89                    6866 	.db	137
      000011 01                    6867 	.uleb128	1
      000012                       6868 Ldebug_CIE0_end:
      000012 00 00 00 59           6869 	.dw	0,89
      000016 00 00r00r00           6870 	.dw	0,(Ldebug_CIE0_start-4)
      00001A 00 00r08r69           6871 	.dw	0,(Sstm8s_uart1$UART1_ClearITPendingBit$630)	;initial loc
      00001E 00 00 00 42           6872 	.dw	0,Sstm8s_uart1$UART1_ClearITPendingBit$651-Sstm8s_uart1$UART1_ClearITPendingBit$630
      000022 01                    6873 	.db	1
      000023 00 00r08r69           6874 	.dw	0,(Sstm8s_uart1$UART1_ClearITPendingBit$630)
      000027 0E                    6875 	.db	14
      000028 02                    6876 	.uleb128	2
      000029 01                    6877 	.db	1
      00002A 00 00r08r76           6878 	.dw	0,(Sstm8s_uart1$UART1_ClearITPendingBit$632)
      00002E 0E                    6879 	.db	14
      00002F 02                    6880 	.uleb128	2
      000030 01                    6881 	.db	1
      000031 00 00r08r84           6882 	.dw	0,(Sstm8s_uart1$UART1_ClearITPendingBit$633)
      000035 0E                    6883 	.db	14
      000036 02                    6884 	.uleb128	2
      000037 01                    6885 	.db	1
      000038 00 00r08r85           6886 	.dw	0,(Sstm8s_uart1$UART1_ClearITPendingBit$634)
      00003C 0E                    6887 	.db	14
      00003D 03                    6888 	.uleb128	3
      00003E 01                    6889 	.db	1
      00003F 00 00r08r87           6890 	.dw	0,(Sstm8s_uart1$UART1_ClearITPendingBit$635)
      000043 0E                    6891 	.db	14
      000044 04                    6892 	.uleb128	4
      000045 01                    6893 	.db	1
      000046 00 00r08r89           6894 	.dw	0,(Sstm8s_uart1$UART1_ClearITPendingBit$636)
      00004A 0E                    6895 	.db	14
      00004B 05                    6896 	.uleb128	5
      00004C 01                    6897 	.db	1
      00004D 00 00r08r8B           6898 	.dw	0,(Sstm8s_uart1$UART1_ClearITPendingBit$637)
      000051 0E                    6899 	.db	14
      000052 07                    6900 	.uleb128	7
      000053 01                    6901 	.db	1
      000054 00 00r08r8D           6902 	.dw	0,(Sstm8s_uart1$UART1_ClearITPendingBit$638)
      000058 0E                    6903 	.db	14
      000059 08                    6904 	.uleb128	8
      00005A 01                    6905 	.db	1
      00005B 00 00r08r8F           6906 	.dw	0,(Sstm8s_uart1$UART1_ClearITPendingBit$639)
      00005F 0E                    6907 	.db	14
      000060 09                    6908 	.uleb128	9
      000061 01                    6909 	.db	1
      000062 00 00r08r94           6910 	.dw	0,(Sstm8s_uart1$UART1_ClearITPendingBit$640)
      000066 0E                    6911 	.db	14
      000067 03                    6912 	.uleb128	3
      000068 01                    6913 	.db	1
      000069 00 00r08r95           6914 	.dw	0,(Sstm8s_uart1$UART1_ClearITPendingBit$641)
      00006D 0E                    6915 	.db	14
      00006E 02                    6916 	.uleb128	2
                                   6917 
                                   6918 	.area .debug_frame (NOLOAD)
      00006F 00 00                 6919 	.dw	0
      000071 00 0E                 6920 	.dw	Ldebug_CIE1_end-Ldebug_CIE1_start
      000073                       6921 Ldebug_CIE1_start:
      000073 FF FF                 6922 	.dw	0xffff
      000075 FF FF                 6923 	.dw	0xffff
      000077 01                    6924 	.db	1
      000078 00                    6925 	.db	0
      000079 01                    6926 	.uleb128	1
      00007A 7F                    6927 	.sleb128	-1
      00007B 09                    6928 	.db	9
      00007C 0C                    6929 	.db	12
      00007D 08                    6930 	.uleb128	8
      00007E 02                    6931 	.uleb128	2
      00007F 89                    6932 	.db	137
      000080 01                    6933 	.uleb128	1
      000081                       6934 Ldebug_CIE1_end:
      000081 00 00 00 98           6935 	.dw	0,152
      000085 00 00r00r6F           6936 	.dw	0,(Ldebug_CIE1_start-4)
      000089 00 00r07r6B           6937 	.dw	0,(Sstm8s_uart1$UART1_GetITStatus$572)	;initial loc
      00008D 00 00 00 FE           6938 	.dw	0,Sstm8s_uart1$UART1_GetITStatus$628-Sstm8s_uart1$UART1_GetITStatus$572
      000091 01                    6939 	.db	1
      000092 00 00r07r6B           6940 	.dw	0,(Sstm8s_uart1$UART1_GetITStatus$572)
      000096 0E                    6941 	.db	14
      000097 02                    6942 	.uleb128	2
      000098 01                    6943 	.db	1
      000099 00 00r07r6D           6944 	.dw	0,(Sstm8s_uart1$UART1_GetITStatus$573)
      00009D 0E                    6945 	.db	14
      00009E 06                    6946 	.uleb128	6
      00009F 01                    6947 	.db	1
      0000A0 00 00r07r7D           6948 	.dw	0,(Sstm8s_uart1$UART1_GetITStatus$575)
      0000A4 0E                    6949 	.db	14
      0000A5 06                    6950 	.uleb128	6
      0000A6 01                    6951 	.db	1
      0000A7 00 00r07r8B           6952 	.dw	0,(Sstm8s_uart1$UART1_GetITStatus$576)
      0000AB 0E                    6953 	.db	14
      0000AC 06                    6954 	.uleb128	6
      0000AD 01                    6955 	.db	1
      0000AE 00 00r07r93           6956 	.dw	0,(Sstm8s_uart1$UART1_GetITStatus$577)
      0000B2 0E                    6957 	.db	14
      0000B3 06                    6958 	.uleb128	6
      0000B4 01                    6959 	.db	1
      0000B5 00 00r07r9B           6960 	.dw	0,(Sstm8s_uart1$UART1_GetITStatus$578)
      0000B9 0E                    6961 	.db	14
      0000BA 06                    6962 	.uleb128	6
      0000BB 01                    6963 	.db	1
      0000BC 00 00r07rA3           6964 	.dw	0,(Sstm8s_uart1$UART1_GetITStatus$579)
      0000C0 0E                    6965 	.db	14
      0000C1 06                    6966 	.uleb128	6
      0000C2 01                    6967 	.db	1
      0000C3 00 00r07rAB           6968 	.dw	0,(Sstm8s_uart1$UART1_GetITStatus$580)
      0000C7 0E                    6969 	.db	14
      0000C8 06                    6970 	.uleb128	6
      0000C9 01                    6971 	.db	1
      0000CA 00 00r07rB3           6972 	.dw	0,(Sstm8s_uart1$UART1_GetITStatus$581)
      0000CE 0E                    6973 	.db	14
      0000CF 06                    6974 	.uleb128	6
      0000D0 01                    6975 	.db	1
      0000D1 00 00r07rC3           6976 	.dw	0,(Sstm8s_uart1$UART1_GetITStatus$582)
      0000D5 0E                    6977 	.db	14
      0000D6 07                    6978 	.uleb128	7
      0000D7 01                    6979 	.db	1
      0000D8 00 00r07rC5           6980 	.dw	0,(Sstm8s_uart1$UART1_GetITStatus$583)
      0000DC 0E                    6981 	.db	14
      0000DD 08                    6982 	.uleb128	8
      0000DE 01                    6983 	.db	1
      0000DF 00 00r07rC7           6984 	.dw	0,(Sstm8s_uart1$UART1_GetITStatus$584)
      0000E3 0E                    6985 	.db	14
      0000E4 0A                    6986 	.uleb128	10
      0000E5 01                    6987 	.db	1
      0000E6 00 00r07rC9           6988 	.dw	0,(Sstm8s_uart1$UART1_GetITStatus$585)
      0000EA 0E                    6989 	.db	14
      0000EB 0B                    6990 	.uleb128	11
      0000EC 01                    6991 	.db	1
      0000ED 00 00r07rCB           6992 	.dw	0,(Sstm8s_uart1$UART1_GetITStatus$586)
      0000F1 0E                    6993 	.db	14
      0000F2 0C                    6994 	.uleb128	12
      0000F3 01                    6995 	.db	1
      0000F4 00 00r07rD0           6996 	.dw	0,(Sstm8s_uart1$UART1_GetITStatus$587)
      0000F8 0E                    6997 	.db	14
      0000F9 06                    6998 	.uleb128	6
      0000FA 01                    6999 	.db	1
      0000FB 00 00r07rD7           7000 	.dw	0,(Sstm8s_uart1$UART1_GetITStatus$589)
      0000FF 0E                    7001 	.db	14
      000100 07                    7002 	.uleb128	7
      000101 01                    7003 	.db	1
      000102 00 00r07rDC           7004 	.dw	0,(Sstm8s_uart1$UART1_GetITStatus$590)
      000106 0E                    7005 	.db	14
      000107 06                    7006 	.uleb128	6
      000108 01                    7007 	.db	1
      000109 00 00r07rE9           7008 	.dw	0,(Sstm8s_uart1$UART1_GetITStatus$593)
      00010D 0E                    7009 	.db	14
      00010E 07                    7010 	.uleb128	7
      00010F 01                    7011 	.db	1
      000110 00 00r07rEE           7012 	.dw	0,(Sstm8s_uart1$UART1_GetITStatus$594)
      000114 0E                    7013 	.db	14
      000115 06                    7014 	.uleb128	6
      000116 01                    7015 	.db	1
      000117 00 00r08r68           7016 	.dw	0,(Sstm8s_uart1$UART1_GetITStatus$626)
      00011B 0E                    7017 	.db	14
      00011C 02                    7018 	.uleb128	2
                                   7019 
                                   7020 	.area .debug_frame (NOLOAD)
      00011D 00 00                 7021 	.dw	0
      00011F 00 0E                 7022 	.dw	Ldebug_CIE2_end-Ldebug_CIE2_start
      000121                       7023 Ldebug_CIE2_start:
      000121 FF FF                 7024 	.dw	0xffff
      000123 FF FF                 7025 	.dw	0xffff
      000125 01                    7026 	.db	1
      000126 00                    7027 	.db	0
      000127 01                    7028 	.uleb128	1
      000128 7F                    7029 	.sleb128	-1
      000129 09                    7030 	.db	9
      00012A 0C                    7031 	.db	12
      00012B 08                    7032 	.uleb128	8
      00012C 02                    7033 	.uleb128	2
      00012D 89                    7034 	.db	137
      00012E 01                    7035 	.uleb128	1
      00012F                       7036 Ldebug_CIE2_end:
      00012F 00 00 00 59           7037 	.dw	0,89
      000133 00 00r01r1D           7038 	.dw	0,(Ldebug_CIE2_start-4)
      000137 00 00r07r29           7039 	.dw	0,(Sstm8s_uart1$UART1_ClearFlag$549)	;initial loc
      00013B 00 00 00 42           7040 	.dw	0,Sstm8s_uart1$UART1_ClearFlag$570-Sstm8s_uart1$UART1_ClearFlag$549
      00013F 01                    7041 	.db	1
      000140 00 00r07r29           7042 	.dw	0,(Sstm8s_uart1$UART1_ClearFlag$549)
      000144 0E                    7043 	.db	14
      000145 02                    7044 	.uleb128	2
      000146 01                    7045 	.db	1
      000147 00 00r07r36           7046 	.dw	0,(Sstm8s_uart1$UART1_ClearFlag$551)
      00014B 0E                    7047 	.db	14
      00014C 02                    7048 	.uleb128	2
      00014D 01                    7049 	.db	1
      00014E 00 00r07r44           7050 	.dw	0,(Sstm8s_uart1$UART1_ClearFlag$552)
      000152 0E                    7051 	.db	14
      000153 02                    7052 	.uleb128	2
      000154 01                    7053 	.db	1
      000155 00 00r07r45           7054 	.dw	0,(Sstm8s_uart1$UART1_ClearFlag$553)
      000159 0E                    7055 	.db	14
      00015A 03                    7056 	.uleb128	3
      00015B 01                    7057 	.db	1
      00015C 00 00r07r47           7058 	.dw	0,(Sstm8s_uart1$UART1_ClearFlag$554)
      000160 0E                    7059 	.db	14
      000161 04                    7060 	.uleb128	4
      000162 01                    7061 	.db	1
      000163 00 00r07r49           7062 	.dw	0,(Sstm8s_uart1$UART1_ClearFlag$555)
      000167 0E                    7063 	.db	14
      000168 05                    7064 	.uleb128	5
      000169 01                    7065 	.db	1
      00016A 00 00r07r4B           7066 	.dw	0,(Sstm8s_uart1$UART1_ClearFlag$556)
      00016E 0E                    7067 	.db	14
      00016F 07                    7068 	.uleb128	7
      000170 01                    7069 	.db	1
      000171 00 00r07r4D           7070 	.dw	0,(Sstm8s_uart1$UART1_ClearFlag$557)
      000175 0E                    7071 	.db	14
      000176 08                    7072 	.uleb128	8
      000177 01                    7073 	.db	1
      000178 00 00r07r4F           7074 	.dw	0,(Sstm8s_uart1$UART1_ClearFlag$558)
      00017C 0E                    7075 	.db	14
      00017D 09                    7076 	.uleb128	9
      00017E 01                    7077 	.db	1
      00017F 00 00r07r54           7078 	.dw	0,(Sstm8s_uart1$UART1_ClearFlag$559)
      000183 0E                    7079 	.db	14
      000184 03                    7080 	.uleb128	3
      000185 01                    7081 	.db	1
      000186 00 00r07r55           7082 	.dw	0,(Sstm8s_uart1$UART1_ClearFlag$560)
      00018A 0E                    7083 	.db	14
      00018B 02                    7084 	.uleb128	2
                                   7085 
                                   7086 	.area .debug_frame (NOLOAD)
      00018C 00 00                 7087 	.dw	0
      00018E 00 0E                 7088 	.dw	Ldebug_CIE3_end-Ldebug_CIE3_start
      000190                       7089 Ldebug_CIE3_start:
      000190 FF FF                 7090 	.dw	0xffff
      000192 FF FF                 7091 	.dw	0xffff
      000194 01                    7092 	.db	1
      000195 00                    7093 	.db	0
      000196 01                    7094 	.uleb128	1
      000197 7F                    7095 	.sleb128	-1
      000198 09                    7096 	.db	9
      000199 0C                    7097 	.db	12
      00019A 08                    7098 	.uleb128	8
      00019B 02                    7099 	.uleb128	2
      00019C 89                    7100 	.db	137
      00019D 01                    7101 	.uleb128	1
      00019E                       7102 Ldebug_CIE3_end:
      00019E 00 00 00 AD           7103 	.dw	0,173
      0001A2 00 00r01r8C           7104 	.dw	0,(Ldebug_CIE3_start-4)
      0001A6 00 00r06r62           7105 	.dw	0,(Sstm8s_uart1$UART1_GetFlagStatus$493)	;initial loc
      0001AA 00 00 00 C7           7106 	.dw	0,Sstm8s_uart1$UART1_GetFlagStatus$547-Sstm8s_uart1$UART1_GetFlagStatus$493
      0001AE 01                    7107 	.db	1
      0001AF 00 00r06r62           7108 	.dw	0,(Sstm8s_uart1$UART1_GetFlagStatus$493)
      0001B3 0E                    7109 	.db	14
      0001B4 02                    7110 	.uleb128	2
      0001B5 01                    7111 	.db	1
      0001B6 00 00r06r63           7112 	.dw	0,(Sstm8s_uart1$UART1_GetFlagStatus$494)
      0001BA 0E                    7113 	.db	14
      0001BB 04                    7114 	.uleb128	4
      0001BC 01                    7115 	.db	1
      0001BD 00 00r06r73           7116 	.dw	0,(Sstm8s_uart1$UART1_GetFlagStatus$496)
      0001C1 0E                    7117 	.db	14
      0001C2 04                    7118 	.uleb128	4
      0001C3 01                    7119 	.db	1
      0001C4 00 00r06r7E           7120 	.dw	0,(Sstm8s_uart1$UART1_GetFlagStatus$497)
      0001C8 0E                    7121 	.db	14
      0001C9 04                    7122 	.uleb128	4
      0001CA 01                    7123 	.db	1
      0001CB 00 00r06r86           7124 	.dw	0,(Sstm8s_uart1$UART1_GetFlagStatus$498)
      0001CF 0E                    7125 	.db	14
      0001D0 04                    7126 	.uleb128	4
      0001D1 01                    7127 	.db	1
      0001D2 00 00r06r8E           7128 	.dw	0,(Sstm8s_uart1$UART1_GetFlagStatus$499)
      0001D6 0E                    7129 	.db	14
      0001D7 04                    7130 	.uleb128	4
      0001D8 01                    7131 	.db	1
      0001D9 00 00r06r96           7132 	.dw	0,(Sstm8s_uart1$UART1_GetFlagStatus$500)
      0001DD 0E                    7133 	.db	14
      0001DE 04                    7134 	.uleb128	4
      0001DF 01                    7135 	.db	1
      0001E0 00 00r06r9E           7136 	.dw	0,(Sstm8s_uart1$UART1_GetFlagStatus$501)
      0001E4 0E                    7137 	.db	14
      0001E5 04                    7138 	.uleb128	4
      0001E6 01                    7139 	.db	1
      0001E7 00 00r06rA6           7140 	.dw	0,(Sstm8s_uart1$UART1_GetFlagStatus$502)
      0001EB 0E                    7141 	.db	14
      0001EC 04                    7142 	.uleb128	4
      0001ED 01                    7143 	.db	1
      0001EE 00 00r06rAE           7144 	.dw	0,(Sstm8s_uart1$UART1_GetFlagStatus$503)
      0001F2 0E                    7145 	.db	14
      0001F3 04                    7146 	.uleb128	4
      0001F4 01                    7147 	.db	1
      0001F5 00 00r06rB6           7148 	.dw	0,(Sstm8s_uart1$UART1_GetFlagStatus$504)
      0001F9 0E                    7149 	.db	14
      0001FA 04                    7150 	.uleb128	4
      0001FB 01                    7151 	.db	1
      0001FC 00 00r06rBC           7152 	.dw	0,(Sstm8s_uart1$UART1_GetFlagStatus$505)
      000200 0E                    7153 	.db	14
      000201 04                    7154 	.uleb128	4
      000202 01                    7155 	.db	1
      000203 00 00r06rCA           7156 	.dw	0,(Sstm8s_uart1$UART1_GetFlagStatus$506)
      000207 0E                    7157 	.db	14
      000208 05                    7158 	.uleb128	5
      000209 01                    7159 	.db	1
      00020A 00 00r06rCC           7160 	.dw	0,(Sstm8s_uart1$UART1_GetFlagStatus$507)
      00020E 0E                    7161 	.db	14
      00020F 06                    7162 	.uleb128	6
      000210 01                    7163 	.db	1
      000211 00 00r06rCE           7164 	.dw	0,(Sstm8s_uart1$UART1_GetFlagStatus$508)
      000215 0E                    7165 	.db	14
      000216 07                    7166 	.uleb128	7
      000217 01                    7167 	.db	1
      000218 00 00r06rD0           7168 	.dw	0,(Sstm8s_uart1$UART1_GetFlagStatus$509)
      00021C 0E                    7169 	.db	14
      00021D 09                    7170 	.uleb128	9
      00021E 01                    7171 	.db	1
      00021F 00 00r06rD2           7172 	.dw	0,(Sstm8s_uart1$UART1_GetFlagStatus$510)
      000223 0E                    7173 	.db	14
      000224 0A                    7174 	.uleb128	10
      000225 01                    7175 	.db	1
      000226 00 00r06rD4           7176 	.dw	0,(Sstm8s_uart1$UART1_GetFlagStatus$511)
      00022A 0E                    7177 	.db	14
      00022B 0B                    7178 	.uleb128	11
      00022C 01                    7179 	.db	1
      00022D 00 00r06rD9           7180 	.dw	0,(Sstm8s_uart1$UART1_GetFlagStatus$512)
      000231 0E                    7181 	.db	14
      000232 05                    7182 	.uleb128	5
      000233 01                    7183 	.db	1
      000234 00 00r06rDA           7184 	.dw	0,(Sstm8s_uart1$UART1_GetFlagStatus$513)
      000238 0E                    7185 	.db	14
      000239 04                    7186 	.uleb128	4
      00023A 01                    7187 	.db	1
      00023B 00 00r06rDB           7188 	.dw	0,(Sstm8s_uart1$UART1_GetFlagStatus$515)
      00023F 0E                    7189 	.db	14
      000240 05                    7190 	.uleb128	5
      000241 01                    7191 	.db	1
      000242 00 00r06rE0           7192 	.dw	0,(Sstm8s_uart1$UART1_GetFlagStatus$516)
      000246 0E                    7193 	.db	14
      000247 04                    7194 	.uleb128	4
      000248 01                    7195 	.db	1
      000249 00 00r07r28           7196 	.dw	0,(Sstm8s_uart1$UART1_GetFlagStatus$545)
      00024D 0E                    7197 	.db	14
      00024E 02                    7198 	.uleb128	2
                                   7199 
                                   7200 	.area .debug_frame (NOLOAD)
      00024F 00 00                 7201 	.dw	0
      000251 00 0E                 7202 	.dw	Ldebug_CIE4_end-Ldebug_CIE4_start
      000253                       7203 Ldebug_CIE4_start:
      000253 FF FF                 7204 	.dw	0xffff
      000255 FF FF                 7205 	.dw	0xffff
      000257 01                    7206 	.db	1
      000258 00                    7207 	.db	0
      000259 01                    7208 	.uleb128	1
      00025A 7F                    7209 	.sleb128	-1
      00025B 09                    7210 	.db	9
      00025C 0C                    7211 	.db	12
      00025D 08                    7212 	.uleb128	8
      00025E 02                    7213 	.uleb128	2
      00025F 89                    7214 	.db	137
      000260 01                    7215 	.uleb128	1
      000261                       7216 Ldebug_CIE4_end:
      000261 00 00 00 13           7217 	.dw	0,19
      000265 00 00r02r4F           7218 	.dw	0,(Ldebug_CIE4_start-4)
      000269 00 00r06r5B           7219 	.dw	0,(Sstm8s_uart1$UART1_SetPrescaler$487)	;initial loc
      00026D 00 00 00 07           7220 	.dw	0,Sstm8s_uart1$UART1_SetPrescaler$491-Sstm8s_uart1$UART1_SetPrescaler$487
      000271 01                    7221 	.db	1
      000272 00 00r06r5B           7222 	.dw	0,(Sstm8s_uart1$UART1_SetPrescaler$487)
      000276 0E                    7223 	.db	14
      000277 02                    7224 	.uleb128	2
                                   7225 
                                   7226 	.area .debug_frame (NOLOAD)
      000278 00 00                 7227 	.dw	0
      00027A 00 0E                 7228 	.dw	Ldebug_CIE5_end-Ldebug_CIE5_start
      00027C                       7229 Ldebug_CIE5_start:
      00027C FF FF                 7230 	.dw	0xffff
      00027E FF FF                 7231 	.dw	0xffff
      000280 01                    7232 	.db	1
      000281 00                    7233 	.db	0
      000282 01                    7234 	.uleb128	1
      000283 7F                    7235 	.sleb128	-1
      000284 09                    7236 	.db	9
      000285 0C                    7237 	.db	12
      000286 08                    7238 	.uleb128	8
      000287 02                    7239 	.uleb128	2
      000288 89                    7240 	.db	137
      000289 01                    7241 	.uleb128	1
      00028A                       7242 Ldebug_CIE5_end:
      00028A 00 00 00 13           7243 	.dw	0,19
      00028E 00 00r02r78           7244 	.dw	0,(Ldebug_CIE5_start-4)
      000292 00 00r06r54           7245 	.dw	0,(Sstm8s_uart1$UART1_SetGuardTime$481)	;initial loc
      000296 00 00 00 07           7246 	.dw	0,Sstm8s_uart1$UART1_SetGuardTime$485-Sstm8s_uart1$UART1_SetGuardTime$481
      00029A 01                    7247 	.db	1
      00029B 00 00r06r54           7248 	.dw	0,(Sstm8s_uart1$UART1_SetGuardTime$481)
      00029F 0E                    7249 	.db	14
      0002A0 02                    7250 	.uleb128	2
                                   7251 
                                   7252 	.area .debug_frame (NOLOAD)
      0002A1 00 00                 7253 	.dw	0
      0002A3 00 0E                 7254 	.dw	Ldebug_CIE6_end-Ldebug_CIE6_start
      0002A5                       7255 Ldebug_CIE6_start:
      0002A5 FF FF                 7256 	.dw	0xffff
      0002A7 FF FF                 7257 	.dw	0xffff
      0002A9 01                    7258 	.db	1
      0002AA 00                    7259 	.db	0
      0002AB 01                    7260 	.uleb128	1
      0002AC 7F                    7261 	.sleb128	-1
      0002AD 09                    7262 	.db	9
      0002AE 0C                    7263 	.db	12
      0002AF 08                    7264 	.uleb128	8
      0002B0 02                    7265 	.uleb128	2
      0002B1 89                    7266 	.db	137
      0002B2 01                    7267 	.uleb128	1
      0002B3                       7268 Ldebug_CIE6_end:
      0002B3 00 00 00 3D           7269 	.dw	0,61
      0002B7 00 00r02rA1           7270 	.dw	0,(Ldebug_CIE6_start-4)
      0002BB 00 00r06r2B           7271 	.dw	0,(Sstm8s_uart1$UART1_SetAddress$467)	;initial loc
      0002BF 00 00 00 29           7272 	.dw	0,Sstm8s_uart1$UART1_SetAddress$479-Sstm8s_uart1$UART1_SetAddress$467
      0002C3 01                    7273 	.db	1
      0002C4 00 00r06r2B           7274 	.dw	0,(Sstm8s_uart1$UART1_SetAddress$467)
      0002C8 0E                    7275 	.db	14
      0002C9 02                    7276 	.uleb128	2
      0002CA 01                    7277 	.db	1
      0002CB 00 00r06r36           7278 	.dw	0,(Sstm8s_uart1$UART1_SetAddress$469)
      0002CF 0E                    7279 	.db	14
      0002D0 03                    7280 	.uleb128	3
      0002D1 01                    7281 	.db	1
      0002D2 00 00r06r38           7282 	.dw	0,(Sstm8s_uart1$UART1_SetAddress$470)
      0002D6 0E                    7283 	.db	14
      0002D7 04                    7284 	.uleb128	4
      0002D8 01                    7285 	.db	1
      0002D9 00 00r06r3A           7286 	.dw	0,(Sstm8s_uart1$UART1_SetAddress$471)
      0002DD 0E                    7287 	.db	14
      0002DE 06                    7288 	.uleb128	6
      0002DF 01                    7289 	.db	1
      0002E0 00 00r06r3C           7290 	.dw	0,(Sstm8s_uart1$UART1_SetAddress$472)
      0002E4 0E                    7291 	.db	14
      0002E5 07                    7292 	.uleb128	7
      0002E6 01                    7293 	.db	1
      0002E7 00 00r06r3E           7294 	.dw	0,(Sstm8s_uart1$UART1_SetAddress$473)
      0002EB 0E                    7295 	.db	14
      0002EC 08                    7296 	.uleb128	8
      0002ED 01                    7297 	.db	1
      0002EE 00 00r06r43           7298 	.dw	0,(Sstm8s_uart1$UART1_SetAddress$474)
      0002F2 0E                    7299 	.db	14
      0002F3 02                    7300 	.uleb128	2
                                   7301 
                                   7302 	.area .debug_frame (NOLOAD)
      0002F4 00 00                 7303 	.dw	0
      0002F6 00 0E                 7304 	.dw	Ldebug_CIE7_end-Ldebug_CIE7_start
      0002F8                       7305 Ldebug_CIE7_start:
      0002F8 FF FF                 7306 	.dw	0xffff
      0002FA FF FF                 7307 	.dw	0xffff
      0002FC 01                    7308 	.db	1
      0002FD 00                    7309 	.db	0
      0002FE 01                    7310 	.uleb128	1
      0002FF 7F                    7311 	.sleb128	-1
      000300 09                    7312 	.db	9
      000301 0C                    7313 	.db	12
      000302 08                    7314 	.uleb128	8
      000303 02                    7315 	.uleb128	2
      000304 89                    7316 	.db	137
      000305 01                    7317 	.uleb128	1
      000306                       7318 Ldebug_CIE7_end:
      000306 00 00 00 13           7319 	.dw	0,19
      00030A 00 00r02rF4           7320 	.dw	0,(Ldebug_CIE7_start-4)
      00030E 00 00r06r22           7321 	.dw	0,(Sstm8s_uart1$UART1_SendBreak$461)	;initial loc
      000312 00 00 00 09           7322 	.dw	0,Sstm8s_uart1$UART1_SendBreak$465-Sstm8s_uart1$UART1_SendBreak$461
      000316 01                    7323 	.db	1
      000317 00 00r06r22           7324 	.dw	0,(Sstm8s_uart1$UART1_SendBreak$461)
      00031B 0E                    7325 	.db	14
      00031C 02                    7326 	.uleb128	2
                                   7327 
                                   7328 	.area .debug_frame (NOLOAD)
      00031D 00 00                 7329 	.dw	0
      00031F 00 0E                 7330 	.dw	Ldebug_CIE8_end-Ldebug_CIE8_start
      000321                       7331 Ldebug_CIE8_start:
      000321 FF FF                 7332 	.dw	0xffff
      000323 FF FF                 7333 	.dw	0xffff
      000325 01                    7334 	.db	1
      000326 00                    7335 	.db	0
      000327 01                    7336 	.uleb128	1
      000328 7F                    7337 	.sleb128	-1
      000329 09                    7338 	.db	9
      00032A 0C                    7339 	.db	12
      00032B 08                    7340 	.uleb128	8
      00032C 02                    7341 	.uleb128	2
      00032D 89                    7342 	.db	137
      00032E 01                    7343 	.uleb128	1
      00032F                       7344 Ldebug_CIE8_end:
      00032F 00 00 00 21           7345 	.dw	0,33
      000333 00 00r03r1D           7346 	.dw	0,(Ldebug_CIE8_start-4)
      000337 00 00r06r01           7347 	.dw	0,(Sstm8s_uart1$UART1_SendData9$451)	;initial loc
      00033B 00 00 00 21           7348 	.dw	0,Sstm8s_uart1$UART1_SendData9$459-Sstm8s_uart1$UART1_SendData9$451
      00033F 01                    7349 	.db	1
      000340 00 00r06r01           7350 	.dw	0,(Sstm8s_uart1$UART1_SendData9$451)
      000344 0E                    7351 	.db	14
      000345 02                    7352 	.uleb128	2
      000346 01                    7353 	.db	1
      000347 00 00r06r02           7354 	.dw	0,(Sstm8s_uart1$UART1_SendData9$452)
      00034B 0E                    7355 	.db	14
      00034C 03                    7356 	.uleb128	3
      00034D 01                    7357 	.db	1
      00034E 00 00r06r21           7358 	.dw	0,(Sstm8s_uart1$UART1_SendData9$457)
      000352 0E                    7359 	.db	14
      000353 02                    7360 	.uleb128	2
                                   7361 
                                   7362 	.area .debug_frame (NOLOAD)
      000354 00 00                 7363 	.dw	0
      000356 00 0E                 7364 	.dw	Ldebug_CIE9_end-Ldebug_CIE9_start
      000358                       7365 Ldebug_CIE9_start:
      000358 FF FF                 7366 	.dw	0xffff
      00035A FF FF                 7367 	.dw	0xffff
      00035C 01                    7368 	.db	1
      00035D 00                    7369 	.db	0
      00035E 01                    7370 	.uleb128	1
      00035F 7F                    7371 	.sleb128	-1
      000360 09                    7372 	.db	9
      000361 0C                    7373 	.db	12
      000362 08                    7374 	.uleb128	8
      000363 02                    7375 	.uleb128	2
      000364 89                    7376 	.db	137
      000365 01                    7377 	.uleb128	1
      000366                       7378 Ldebug_CIE9_end:
      000366 00 00 00 13           7379 	.dw	0,19
      00036A 00 00r03r54           7380 	.dw	0,(Ldebug_CIE9_start-4)
      00036E 00 00r05rFA           7381 	.dw	0,(Sstm8s_uart1$UART1_SendData8$445)	;initial loc
      000372 00 00 00 07           7382 	.dw	0,Sstm8s_uart1$UART1_SendData8$449-Sstm8s_uart1$UART1_SendData8$445
      000376 01                    7383 	.db	1
      000377 00 00r05rFA           7384 	.dw	0,(Sstm8s_uart1$UART1_SendData8$445)
      00037B 0E                    7385 	.db	14
      00037C 02                    7386 	.uleb128	2
                                   7387 
                                   7388 	.area .debug_frame (NOLOAD)
      00037D 00 00                 7389 	.dw	0
      00037F 00 0E                 7390 	.dw	Ldebug_CIE10_end-Ldebug_CIE10_start
      000381                       7391 Ldebug_CIE10_start:
      000381 FF FF                 7392 	.dw	0xffff
      000383 FF FF                 7393 	.dw	0xffff
      000385 01                    7394 	.db	1
      000386 00                    7395 	.db	0
      000387 01                    7396 	.uleb128	1
      000388 7F                    7397 	.sleb128	-1
      000389 09                    7398 	.db	9
      00038A 0C                    7399 	.db	12
      00038B 08                    7400 	.uleb128	8
      00038C 02                    7401 	.uleb128	2
      00038D 89                    7402 	.db	137
      00038E 01                    7403 	.uleb128	1
      00038F                       7404 Ldebug_CIE10_end:
      00038F 00 00 00 21           7405 	.dw	0,33
      000393 00 00r03r7D           7406 	.dw	0,(Ldebug_CIE10_start-4)
      000397 00 00r05rDD           7407 	.dw	0,(Sstm8s_uart1$UART1_ReceiveData9$436)	;initial loc
      00039B 00 00 00 1D           7408 	.dw	0,Sstm8s_uart1$UART1_ReceiveData9$443-Sstm8s_uart1$UART1_ReceiveData9$436
      00039F 01                    7409 	.db	1
      0003A0 00 00r05rDD           7410 	.dw	0,(Sstm8s_uart1$UART1_ReceiveData9$436)
      0003A4 0E                    7411 	.db	14
      0003A5 02                    7412 	.uleb128	2
      0003A6 01                    7413 	.db	1
      0003A7 00 00r05rDE           7414 	.dw	0,(Sstm8s_uart1$UART1_ReceiveData9$437)
      0003AB 0E                    7415 	.db	14
      0003AC 04                    7416 	.uleb128	4
      0003AD 01                    7417 	.db	1
      0003AE 00 00r05rF9           7418 	.dw	0,(Sstm8s_uart1$UART1_ReceiveData9$441)
      0003B2 0E                    7419 	.db	14
      0003B3 02                    7420 	.uleb128	2
                                   7421 
                                   7422 	.area .debug_frame (NOLOAD)
      0003B4 00 00                 7423 	.dw	0
      0003B6 00 0E                 7424 	.dw	Ldebug_CIE11_end-Ldebug_CIE11_start
      0003B8                       7425 Ldebug_CIE11_start:
      0003B8 FF FF                 7426 	.dw	0xffff
      0003BA FF FF                 7427 	.dw	0xffff
      0003BC 01                    7428 	.db	1
      0003BD 00                    7429 	.db	0
      0003BE 01                    7430 	.uleb128	1
      0003BF 7F                    7431 	.sleb128	-1
      0003C0 09                    7432 	.db	9
      0003C1 0C                    7433 	.db	12
      0003C2 08                    7434 	.uleb128	8
      0003C3 02                    7435 	.uleb128	2
      0003C4 89                    7436 	.db	137
      0003C5 01                    7437 	.uleb128	1
      0003C6                       7438 Ldebug_CIE11_end:
      0003C6 00 00 00 13           7439 	.dw	0,19
      0003CA 00 00r03rB4           7440 	.dw	0,(Ldebug_CIE11_start-4)
      0003CE 00 00r05rD9           7441 	.dw	0,(Sstm8s_uart1$UART1_ReceiveData8$430)	;initial loc
      0003D2 00 00 00 04           7442 	.dw	0,Sstm8s_uart1$UART1_ReceiveData8$434-Sstm8s_uart1$UART1_ReceiveData8$430
      0003D6 01                    7443 	.db	1
      0003D7 00 00r05rD9           7444 	.dw	0,(Sstm8s_uart1$UART1_ReceiveData8$430)
      0003DB 0E                    7445 	.db	14
      0003DC 02                    7446 	.uleb128	2
                                   7447 
                                   7448 	.area .debug_frame (NOLOAD)
      0003DD 00 00                 7449 	.dw	0
      0003DF 00 0E                 7450 	.dw	Ldebug_CIE12_end-Ldebug_CIE12_start
      0003E1                       7451 Ldebug_CIE12_start:
      0003E1 FF FF                 7452 	.dw	0xffff
      0003E3 FF FF                 7453 	.dw	0xffff
      0003E5 01                    7454 	.db	1
      0003E6 00                    7455 	.db	0
      0003E7 01                    7456 	.uleb128	1
      0003E8 7F                    7457 	.sleb128	-1
      0003E9 09                    7458 	.db	9
      0003EA 0C                    7459 	.db	12
      0003EB 08                    7460 	.uleb128	8
      0003EC 02                    7461 	.uleb128	2
      0003ED 89                    7462 	.db	137
      0003EE 01                    7463 	.uleb128	1
      0003EF                       7464 Ldebug_CIE12_end:
      0003EF 00 00 00 44           7465 	.dw	0,68
      0003F3 00 00r03rDD           7466 	.dw	0,(Ldebug_CIE12_start-4)
      0003F7 00 00r05rA3           7467 	.dw	0,(Sstm8s_uart1$UART1_ReceiverWakeUpCmd$409)	;initial loc
      0003FB 00 00 00 36           7468 	.dw	0,Sstm8s_uart1$UART1_ReceiverWakeUpCmd$428-Sstm8s_uart1$UART1_ReceiverWakeUpCmd$409
      0003FF 01                    7469 	.db	1
      000400 00 00r05rA3           7470 	.dw	0,(Sstm8s_uart1$UART1_ReceiverWakeUpCmd$409)
      000404 0E                    7471 	.db	14
      000405 02                    7472 	.uleb128	2
      000406 01                    7473 	.db	1
      000407 00 00r05rB2           7474 	.dw	0,(Sstm8s_uart1$UART1_ReceiverWakeUpCmd$411)
      00040B 0E                    7475 	.db	14
      00040C 02                    7476 	.uleb128	2
      00040D 01                    7477 	.db	1
      00040E 00 00r05rB4           7478 	.dw	0,(Sstm8s_uart1$UART1_ReceiverWakeUpCmd$412)
      000412 0E                    7479 	.db	14
      000413 03                    7480 	.uleb128	3
      000414 01                    7481 	.db	1
      000415 00 00r05rB6           7482 	.dw	0,(Sstm8s_uart1$UART1_ReceiverWakeUpCmd$413)
      000419 0E                    7483 	.db	14
      00041A 04                    7484 	.uleb128	4
      00041B 01                    7485 	.db	1
      00041C 00 00r05rB8           7486 	.dw	0,(Sstm8s_uart1$UART1_ReceiverWakeUpCmd$414)
      000420 0E                    7487 	.db	14
      000421 06                    7488 	.uleb128	6
      000422 01                    7489 	.db	1
      000423 00 00r05rBA           7490 	.dw	0,(Sstm8s_uart1$UART1_ReceiverWakeUpCmd$415)
      000427 0E                    7491 	.db	14
      000428 07                    7492 	.uleb128	7
      000429 01                    7493 	.db	1
      00042A 00 00r05rBC           7494 	.dw	0,(Sstm8s_uart1$UART1_ReceiverWakeUpCmd$416)
      00042E 0E                    7495 	.db	14
      00042F 08                    7496 	.uleb128	8
      000430 01                    7497 	.db	1
      000431 00 00r05rC1           7498 	.dw	0,(Sstm8s_uart1$UART1_ReceiverWakeUpCmd$417)
      000435 0E                    7499 	.db	14
      000436 02                    7500 	.uleb128	2
                                   7501 
                                   7502 	.area .debug_frame (NOLOAD)
      000437 00 00                 7503 	.dw	0
      000439 00 0E                 7504 	.dw	Ldebug_CIE13_end-Ldebug_CIE13_start
      00043B                       7505 Ldebug_CIE13_start:
      00043B FF FF                 7506 	.dw	0xffff
      00043D FF FF                 7507 	.dw	0xffff
      00043F 01                    7508 	.db	1
      000440 00                    7509 	.db	0
      000441 01                    7510 	.uleb128	1
      000442 7F                    7511 	.sleb128	-1
      000443 09                    7512 	.db	9
      000444 0C                    7513 	.db	12
      000445 08                    7514 	.uleb128	8
      000446 02                    7515 	.uleb128	2
      000447 89                    7516 	.db	137
      000448 01                    7517 	.uleb128	1
      000449                       7518 Ldebug_CIE13_end:
      000449 00 00 00 44           7519 	.dw	0,68
      00044D 00 00r04r37           7520 	.dw	0,(Ldebug_CIE13_start-4)
      000451 00 00r05r73           7521 	.dw	0,(Sstm8s_uart1$UART1_WakeUpConfig$394)	;initial loc
      000455 00 00 00 30           7522 	.dw	0,Sstm8s_uart1$UART1_WakeUpConfig$407-Sstm8s_uart1$UART1_WakeUpConfig$394
      000459 01                    7523 	.db	1
      00045A 00 00r05r73           7524 	.dw	0,(Sstm8s_uart1$UART1_WakeUpConfig$394)
      00045E 0E                    7525 	.db	14
      00045F 02                    7526 	.uleb128	2
      000460 01                    7527 	.db	1
      000461 00 00r05r83           7528 	.dw	0,(Sstm8s_uart1$UART1_WakeUpConfig$396)
      000465 0E                    7529 	.db	14
      000466 02                    7530 	.uleb128	2
      000467 01                    7531 	.db	1
      000468 00 00r05r85           7532 	.dw	0,(Sstm8s_uart1$UART1_WakeUpConfig$397)
      00046C 0E                    7533 	.db	14
      00046D 03                    7534 	.uleb128	3
      00046E 01                    7535 	.db	1
      00046F 00 00r05r87           7536 	.dw	0,(Sstm8s_uart1$UART1_WakeUpConfig$398)
      000473 0E                    7537 	.db	14
      000474 04                    7538 	.uleb128	4
      000475 01                    7539 	.db	1
      000476 00 00r05r89           7540 	.dw	0,(Sstm8s_uart1$UART1_WakeUpConfig$399)
      00047A 0E                    7541 	.db	14
      00047B 06                    7542 	.uleb128	6
      00047C 01                    7543 	.db	1
      00047D 00 00r05r8B           7544 	.dw	0,(Sstm8s_uart1$UART1_WakeUpConfig$400)
      000481 0E                    7545 	.db	14
      000482 07                    7546 	.uleb128	7
      000483 01                    7547 	.db	1
      000484 00 00r05r8D           7548 	.dw	0,(Sstm8s_uart1$UART1_WakeUpConfig$401)
      000488 0E                    7549 	.db	14
      000489 08                    7550 	.uleb128	8
      00048A 01                    7551 	.db	1
      00048B 00 00r05r92           7552 	.dw	0,(Sstm8s_uart1$UART1_WakeUpConfig$402)
      00048F 0E                    7553 	.db	14
      000490 02                    7554 	.uleb128	2
                                   7555 
                                   7556 	.area .debug_frame (NOLOAD)
      000491 00 00                 7557 	.dw	0
      000493 00 0E                 7558 	.dw	Ldebug_CIE14_end-Ldebug_CIE14_start
      000495                       7559 Ldebug_CIE14_start:
      000495 FF FF                 7560 	.dw	0xffff
      000497 FF FF                 7561 	.dw	0xffff
      000499 01                    7562 	.db	1
      00049A 00                    7563 	.db	0
      00049B 01                    7564 	.uleb128	1
      00049C 7F                    7565 	.sleb128	-1
      00049D 09                    7566 	.db	9
      00049E 0C                    7567 	.db	12
      00049F 08                    7568 	.uleb128	8
      0004A0 02                    7569 	.uleb128	2
      0004A1 89                    7570 	.db	137
      0004A2 01                    7571 	.uleb128	1
      0004A3                       7572 Ldebug_CIE14_end:
      0004A3 00 00 00 44           7573 	.dw	0,68
      0004A7 00 00r04r91           7574 	.dw	0,(Ldebug_CIE14_start-4)
      0004AB 00 00r05r3D           7575 	.dw	0,(Sstm8s_uart1$UART1_SmartCardNACKCmd$373)	;initial loc
      0004AF 00 00 00 36           7576 	.dw	0,Sstm8s_uart1$UART1_SmartCardNACKCmd$392-Sstm8s_uart1$UART1_SmartCardNACKCmd$373
      0004B3 01                    7577 	.db	1
      0004B4 00 00r05r3D           7578 	.dw	0,(Sstm8s_uart1$UART1_SmartCardNACKCmd$373)
      0004B8 0E                    7579 	.db	14
      0004B9 02                    7580 	.uleb128	2
      0004BA 01                    7581 	.db	1
      0004BB 00 00r05r4C           7582 	.dw	0,(Sstm8s_uart1$UART1_SmartCardNACKCmd$375)
      0004BF 0E                    7583 	.db	14
      0004C0 02                    7584 	.uleb128	2
      0004C1 01                    7585 	.db	1
      0004C2 00 00r05r4E           7586 	.dw	0,(Sstm8s_uart1$UART1_SmartCardNACKCmd$376)
      0004C6 0E                    7587 	.db	14
      0004C7 03                    7588 	.uleb128	3
      0004C8 01                    7589 	.db	1
      0004C9 00 00r05r50           7590 	.dw	0,(Sstm8s_uart1$UART1_SmartCardNACKCmd$377)
      0004CD 0E                    7591 	.db	14
      0004CE 04                    7592 	.uleb128	4
      0004CF 01                    7593 	.db	1
      0004D0 00 00r05r52           7594 	.dw	0,(Sstm8s_uart1$UART1_SmartCardNACKCmd$378)
      0004D4 0E                    7595 	.db	14
      0004D5 06                    7596 	.uleb128	6
      0004D6 01                    7597 	.db	1
      0004D7 00 00r05r54           7598 	.dw	0,(Sstm8s_uart1$UART1_SmartCardNACKCmd$379)
      0004DB 0E                    7599 	.db	14
      0004DC 07                    7600 	.uleb128	7
      0004DD 01                    7601 	.db	1
      0004DE 00 00r05r56           7602 	.dw	0,(Sstm8s_uart1$UART1_SmartCardNACKCmd$380)
      0004E2 0E                    7603 	.db	14
      0004E3 08                    7604 	.uleb128	8
      0004E4 01                    7605 	.db	1
      0004E5 00 00r05r5B           7606 	.dw	0,(Sstm8s_uart1$UART1_SmartCardNACKCmd$381)
      0004E9 0E                    7607 	.db	14
      0004EA 02                    7608 	.uleb128	2
                                   7609 
                                   7610 	.area .debug_frame (NOLOAD)
      0004EB 00 00                 7611 	.dw	0
      0004ED 00 0E                 7612 	.dw	Ldebug_CIE15_end-Ldebug_CIE15_start
      0004EF                       7613 Ldebug_CIE15_start:
      0004EF FF FF                 7614 	.dw	0xffff
      0004F1 FF FF                 7615 	.dw	0xffff
      0004F3 01                    7616 	.db	1
      0004F4 00                    7617 	.db	0
      0004F5 01                    7618 	.uleb128	1
      0004F6 7F                    7619 	.sleb128	-1
      0004F7 09                    7620 	.db	9
      0004F8 0C                    7621 	.db	12
      0004F9 08                    7622 	.uleb128	8
      0004FA 02                    7623 	.uleb128	2
      0004FB 89                    7624 	.db	137
      0004FC 01                    7625 	.uleb128	1
      0004FD                       7626 Ldebug_CIE15_end:
      0004FD 00 00 00 44           7627 	.dw	0,68
      000501 00 00r04rEB           7628 	.dw	0,(Ldebug_CIE15_start-4)
      000505 00 00r05r07           7629 	.dw	0,(Sstm8s_uart1$UART1_SmartCardCmd$352)	;initial loc
      000509 00 00 00 36           7630 	.dw	0,Sstm8s_uart1$UART1_SmartCardCmd$371-Sstm8s_uart1$UART1_SmartCardCmd$352
      00050D 01                    7631 	.db	1
      00050E 00 00r05r07           7632 	.dw	0,(Sstm8s_uart1$UART1_SmartCardCmd$352)
      000512 0E                    7633 	.db	14
      000513 02                    7634 	.uleb128	2
      000514 01                    7635 	.db	1
      000515 00 00r05r16           7636 	.dw	0,(Sstm8s_uart1$UART1_SmartCardCmd$354)
      000519 0E                    7637 	.db	14
      00051A 02                    7638 	.uleb128	2
      00051B 01                    7639 	.db	1
      00051C 00 00r05r18           7640 	.dw	0,(Sstm8s_uart1$UART1_SmartCardCmd$355)
      000520 0E                    7641 	.db	14
      000521 03                    7642 	.uleb128	3
      000522 01                    7643 	.db	1
      000523 00 00r05r1A           7644 	.dw	0,(Sstm8s_uart1$UART1_SmartCardCmd$356)
      000527 0E                    7645 	.db	14
      000528 04                    7646 	.uleb128	4
      000529 01                    7647 	.db	1
      00052A 00 00r05r1C           7648 	.dw	0,(Sstm8s_uart1$UART1_SmartCardCmd$357)
      00052E 0E                    7649 	.db	14
      00052F 06                    7650 	.uleb128	6
      000530 01                    7651 	.db	1
      000531 00 00r05r1E           7652 	.dw	0,(Sstm8s_uart1$UART1_SmartCardCmd$358)
      000535 0E                    7653 	.db	14
      000536 07                    7654 	.uleb128	7
      000537 01                    7655 	.db	1
      000538 00 00r05r20           7656 	.dw	0,(Sstm8s_uart1$UART1_SmartCardCmd$359)
      00053C 0E                    7657 	.db	14
      00053D 08                    7658 	.uleb128	8
      00053E 01                    7659 	.db	1
      00053F 00 00r05r25           7660 	.dw	0,(Sstm8s_uart1$UART1_SmartCardCmd$360)
      000543 0E                    7661 	.db	14
      000544 02                    7662 	.uleb128	2
                                   7663 
                                   7664 	.area .debug_frame (NOLOAD)
      000545 00 00                 7665 	.dw	0
      000547 00 0E                 7666 	.dw	Ldebug_CIE16_end-Ldebug_CIE16_start
      000549                       7667 Ldebug_CIE16_start:
      000549 FF FF                 7668 	.dw	0xffff
      00054B FF FF                 7669 	.dw	0xffff
      00054D 01                    7670 	.db	1
      00054E 00                    7671 	.db	0
      00054F 01                    7672 	.uleb128	1
      000550 7F                    7673 	.sleb128	-1
      000551 09                    7674 	.db	9
      000552 0C                    7675 	.db	12
      000553 08                    7676 	.uleb128	8
      000554 02                    7677 	.uleb128	2
      000555 89                    7678 	.db	137
      000556 01                    7679 	.uleb128	1
      000557                       7680 Ldebug_CIE16_end:
      000557 00 00 00 44           7681 	.dw	0,68
      00055B 00 00r05r45           7682 	.dw	0,(Ldebug_CIE16_start-4)
      00055F 00 00r04rD1           7683 	.dw	0,(Sstm8s_uart1$UART1_LINCmd$331)	;initial loc
      000563 00 00 00 36           7684 	.dw	0,Sstm8s_uart1$UART1_LINCmd$350-Sstm8s_uart1$UART1_LINCmd$331
      000567 01                    7685 	.db	1
      000568 00 00r04rD1           7686 	.dw	0,(Sstm8s_uart1$UART1_LINCmd$331)
      00056C 0E                    7687 	.db	14
      00056D 02                    7688 	.uleb128	2
      00056E 01                    7689 	.db	1
      00056F 00 00r04rE0           7690 	.dw	0,(Sstm8s_uart1$UART1_LINCmd$333)
      000573 0E                    7691 	.db	14
      000574 02                    7692 	.uleb128	2
      000575 01                    7693 	.db	1
      000576 00 00r04rE2           7694 	.dw	0,(Sstm8s_uart1$UART1_LINCmd$334)
      00057A 0E                    7695 	.db	14
      00057B 03                    7696 	.uleb128	3
      00057C 01                    7697 	.db	1
      00057D 00 00r04rE4           7698 	.dw	0,(Sstm8s_uart1$UART1_LINCmd$335)
      000581 0E                    7699 	.db	14
      000582 04                    7700 	.uleb128	4
      000583 01                    7701 	.db	1
      000584 00 00r04rE6           7702 	.dw	0,(Sstm8s_uart1$UART1_LINCmd$336)
      000588 0E                    7703 	.db	14
      000589 06                    7704 	.uleb128	6
      00058A 01                    7705 	.db	1
      00058B 00 00r04rE8           7706 	.dw	0,(Sstm8s_uart1$UART1_LINCmd$337)
      00058F 0E                    7707 	.db	14
      000590 07                    7708 	.uleb128	7
      000591 01                    7709 	.db	1
      000592 00 00r04rEA           7710 	.dw	0,(Sstm8s_uart1$UART1_LINCmd$338)
      000596 0E                    7711 	.db	14
      000597 08                    7712 	.uleb128	8
      000598 01                    7713 	.db	1
      000599 00 00r04rEF           7714 	.dw	0,(Sstm8s_uart1$UART1_LINCmd$339)
      00059D 0E                    7715 	.db	14
      00059E 02                    7716 	.uleb128	2
                                   7717 
                                   7718 	.area .debug_frame (NOLOAD)
      00059F 00 00                 7719 	.dw	0
      0005A1 00 0E                 7720 	.dw	Ldebug_CIE17_end-Ldebug_CIE17_start
      0005A3                       7721 Ldebug_CIE17_start:
      0005A3 FF FF                 7722 	.dw	0xffff
      0005A5 FF FF                 7723 	.dw	0xffff
      0005A7 01                    7724 	.db	1
      0005A8 00                    7725 	.db	0
      0005A9 01                    7726 	.uleb128	1
      0005AA 7F                    7727 	.sleb128	-1
      0005AB 09                    7728 	.db	9
      0005AC 0C                    7729 	.db	12
      0005AD 08                    7730 	.uleb128	8
      0005AE 02                    7731 	.uleb128	2
      0005AF 89                    7732 	.db	137
      0005B0 01                    7733 	.uleb128	1
      0005B1                       7734 Ldebug_CIE17_end:
      0005B1 00 00 00 44           7735 	.dw	0,68
      0005B5 00 00r05r9F           7736 	.dw	0,(Ldebug_CIE17_start-4)
      0005B9 00 00r04r9B           7737 	.dw	0,(Sstm8s_uart1$UART1_LINBreakDetectionConfig$310)	;initial loc
      0005BD 00 00 00 36           7738 	.dw	0,Sstm8s_uart1$UART1_LINBreakDetectionConfig$329-Sstm8s_uart1$UART1_LINBreakDetectionConfig$310
      0005C1 01                    7739 	.db	1
      0005C2 00 00r04r9B           7740 	.dw	0,(Sstm8s_uart1$UART1_LINBreakDetectionConfig$310)
      0005C6 0E                    7741 	.db	14
      0005C7 02                    7742 	.uleb128	2
      0005C8 01                    7743 	.db	1
      0005C9 00 00r04rAA           7744 	.dw	0,(Sstm8s_uart1$UART1_LINBreakDetectionConfig$312)
      0005CD 0E                    7745 	.db	14
      0005CE 02                    7746 	.uleb128	2
      0005CF 01                    7747 	.db	1
      0005D0 00 00r04rAC           7748 	.dw	0,(Sstm8s_uart1$UART1_LINBreakDetectionConfig$313)
      0005D4 0E                    7749 	.db	14
      0005D5 03                    7750 	.uleb128	3
      0005D6 01                    7751 	.db	1
      0005D7 00 00r04rAE           7752 	.dw	0,(Sstm8s_uart1$UART1_LINBreakDetectionConfig$314)
      0005DB 0E                    7753 	.db	14
      0005DC 04                    7754 	.uleb128	4
      0005DD 01                    7755 	.db	1
      0005DE 00 00r04rB0           7756 	.dw	0,(Sstm8s_uart1$UART1_LINBreakDetectionConfig$315)
      0005E2 0E                    7757 	.db	14
      0005E3 06                    7758 	.uleb128	6
      0005E4 01                    7759 	.db	1
      0005E5 00 00r04rB2           7760 	.dw	0,(Sstm8s_uart1$UART1_LINBreakDetectionConfig$316)
      0005E9 0E                    7761 	.db	14
      0005EA 07                    7762 	.uleb128	7
      0005EB 01                    7763 	.db	1
      0005EC 00 00r04rB4           7764 	.dw	0,(Sstm8s_uart1$UART1_LINBreakDetectionConfig$317)
      0005F0 0E                    7765 	.db	14
      0005F1 08                    7766 	.uleb128	8
      0005F2 01                    7767 	.db	1
      0005F3 00 00r04rB9           7768 	.dw	0,(Sstm8s_uart1$UART1_LINBreakDetectionConfig$318)
      0005F7 0E                    7769 	.db	14
      0005F8 02                    7770 	.uleb128	2
                                   7771 
                                   7772 	.area .debug_frame (NOLOAD)
      0005F9 00 00                 7773 	.dw	0
      0005FB 00 0E                 7774 	.dw	Ldebug_CIE18_end-Ldebug_CIE18_start
      0005FD                       7775 Ldebug_CIE18_start:
      0005FD FF FF                 7776 	.dw	0xffff
      0005FF FF FF                 7777 	.dw	0xffff
      000601 01                    7778 	.db	1
      000602 00                    7779 	.db	0
      000603 01                    7780 	.uleb128	1
      000604 7F                    7781 	.sleb128	-1
      000605 09                    7782 	.db	9
      000606 0C                    7783 	.db	12
      000607 08                    7784 	.uleb128	8
      000608 02                    7785 	.uleb128	2
      000609 89                    7786 	.db	137
      00060A 01                    7787 	.uleb128	1
      00060B                       7788 Ldebug_CIE18_end:
      00060B 00 00 00 44           7789 	.dw	0,68
      00060F 00 00r05rF9           7790 	.dw	0,(Ldebug_CIE18_start-4)
      000613 00 00r04r65           7791 	.dw	0,(Sstm8s_uart1$UART1_IrDACmd$289)	;initial loc
      000617 00 00 00 36           7792 	.dw	0,Sstm8s_uart1$UART1_IrDACmd$308-Sstm8s_uart1$UART1_IrDACmd$289
      00061B 01                    7793 	.db	1
      00061C 00 00r04r65           7794 	.dw	0,(Sstm8s_uart1$UART1_IrDACmd$289)
      000620 0E                    7795 	.db	14
      000621 02                    7796 	.uleb128	2
      000622 01                    7797 	.db	1
      000623 00 00r04r74           7798 	.dw	0,(Sstm8s_uart1$UART1_IrDACmd$291)
      000627 0E                    7799 	.db	14
      000628 02                    7800 	.uleb128	2
      000629 01                    7801 	.db	1
      00062A 00 00r04r76           7802 	.dw	0,(Sstm8s_uart1$UART1_IrDACmd$292)
      00062E 0E                    7803 	.db	14
      00062F 03                    7804 	.uleb128	3
      000630 01                    7805 	.db	1
      000631 00 00r04r78           7806 	.dw	0,(Sstm8s_uart1$UART1_IrDACmd$293)
      000635 0E                    7807 	.db	14
      000636 04                    7808 	.uleb128	4
      000637 01                    7809 	.db	1
      000638 00 00r04r7A           7810 	.dw	0,(Sstm8s_uart1$UART1_IrDACmd$294)
      00063C 0E                    7811 	.db	14
      00063D 06                    7812 	.uleb128	6
      00063E 01                    7813 	.db	1
      00063F 00 00r04r7C           7814 	.dw	0,(Sstm8s_uart1$UART1_IrDACmd$295)
      000643 0E                    7815 	.db	14
      000644 07                    7816 	.uleb128	7
      000645 01                    7817 	.db	1
      000646 00 00r04r7E           7818 	.dw	0,(Sstm8s_uart1$UART1_IrDACmd$296)
      00064A 0E                    7819 	.db	14
      00064B 08                    7820 	.uleb128	8
      00064C 01                    7821 	.db	1
      00064D 00 00r04r83           7822 	.dw	0,(Sstm8s_uart1$UART1_IrDACmd$297)
      000651 0E                    7823 	.db	14
      000652 02                    7824 	.uleb128	2
                                   7825 
                                   7826 	.area .debug_frame (NOLOAD)
      000653 00 00                 7827 	.dw	0
      000655 00 0E                 7828 	.dw	Ldebug_CIE19_end-Ldebug_CIE19_start
      000657                       7829 Ldebug_CIE19_start:
      000657 FF FF                 7830 	.dw	0xffff
      000659 FF FF                 7831 	.dw	0xffff
      00065B 01                    7832 	.db	1
      00065C 00                    7833 	.db	0
      00065D 01                    7834 	.uleb128	1
      00065E 7F                    7835 	.sleb128	-1
      00065F 09                    7836 	.db	9
      000660 0C                    7837 	.db	12
      000661 08                    7838 	.uleb128	8
      000662 02                    7839 	.uleb128	2
      000663 89                    7840 	.db	137
      000664 01                    7841 	.uleb128	1
      000665                       7842 Ldebug_CIE19_end:
      000665 00 00 00 44           7843 	.dw	0,68
      000669 00 00r06r53           7844 	.dw	0,(Ldebug_CIE19_start-4)
      00066D 00 00r04r2F           7845 	.dw	0,(Sstm8s_uart1$UART1_IrDAConfig$268)	;initial loc
      000671 00 00 00 36           7846 	.dw	0,Sstm8s_uart1$UART1_IrDAConfig$287-Sstm8s_uart1$UART1_IrDAConfig$268
      000675 01                    7847 	.db	1
      000676 00 00r04r2F           7848 	.dw	0,(Sstm8s_uart1$UART1_IrDAConfig$268)
      00067A 0E                    7849 	.db	14
      00067B 02                    7850 	.uleb128	2
      00067C 01                    7851 	.db	1
      00067D 00 00r04r37           7852 	.dw	0,(Sstm8s_uart1$UART1_IrDAConfig$270)
      000681 0E                    7853 	.db	14
      000682 02                    7854 	.uleb128	2
      000683 01                    7855 	.db	1
      000684 00 00r04r40           7856 	.dw	0,(Sstm8s_uart1$UART1_IrDAConfig$271)
      000688 0E                    7857 	.db	14
      000689 03                    7858 	.uleb128	3
      00068A 01                    7859 	.db	1
      00068B 00 00r04r42           7860 	.dw	0,(Sstm8s_uart1$UART1_IrDAConfig$272)
      00068F 0E                    7861 	.db	14
      000690 04                    7862 	.uleb128	4
      000691 01                    7863 	.db	1
      000692 00 00r04r44           7864 	.dw	0,(Sstm8s_uart1$UART1_IrDAConfig$273)
      000696 0E                    7865 	.db	14
      000697 06                    7866 	.uleb128	6
      000698 01                    7867 	.db	1
      000699 00 00r04r46           7868 	.dw	0,(Sstm8s_uart1$UART1_IrDAConfig$274)
      00069D 0E                    7869 	.db	14
      00069E 07                    7870 	.uleb128	7
      00069F 01                    7871 	.db	1
      0006A0 00 00r04r48           7872 	.dw	0,(Sstm8s_uart1$UART1_IrDAConfig$275)
      0006A4 0E                    7873 	.db	14
      0006A5 08                    7874 	.uleb128	8
      0006A6 01                    7875 	.db	1
      0006A7 00 00r04r4D           7876 	.dw	0,(Sstm8s_uart1$UART1_IrDAConfig$276)
      0006AB 0E                    7877 	.db	14
      0006AC 02                    7878 	.uleb128	2
                                   7879 
                                   7880 	.area .debug_frame (NOLOAD)
      0006AD 00 00                 7881 	.dw	0
      0006AF 00 0E                 7882 	.dw	Ldebug_CIE20_end-Ldebug_CIE20_start
      0006B1                       7883 Ldebug_CIE20_start:
      0006B1 FF FF                 7884 	.dw	0xffff
      0006B3 FF FF                 7885 	.dw	0xffff
      0006B5 01                    7886 	.db	1
      0006B6 00                    7887 	.db	0
      0006B7 01                    7888 	.uleb128	1
      0006B8 7F                    7889 	.sleb128	-1
      0006B9 09                    7890 	.db	9
      0006BA 0C                    7891 	.db	12
      0006BB 08                    7892 	.uleb128	8
      0006BC 02                    7893 	.uleb128	2
      0006BD 89                    7894 	.db	137
      0006BE 01                    7895 	.uleb128	1
      0006BF                       7896 Ldebug_CIE20_end:
      0006BF 00 00 00 44           7897 	.dw	0,68
      0006C3 00 00r06rAD           7898 	.dw	0,(Ldebug_CIE20_start-4)
      0006C7 00 00r03rF9           7899 	.dw	0,(Sstm8s_uart1$UART1_HalfDuplexCmd$247)	;initial loc
      0006CB 00 00 00 36           7900 	.dw	0,Sstm8s_uart1$UART1_HalfDuplexCmd$266-Sstm8s_uart1$UART1_HalfDuplexCmd$247
      0006CF 01                    7901 	.db	1
      0006D0 00 00r03rF9           7902 	.dw	0,(Sstm8s_uart1$UART1_HalfDuplexCmd$247)
      0006D4 0E                    7903 	.db	14
      0006D5 02                    7904 	.uleb128	2
      0006D6 01                    7905 	.db	1
      0006D7 00 00r04r08           7906 	.dw	0,(Sstm8s_uart1$UART1_HalfDuplexCmd$249)
      0006DB 0E                    7907 	.db	14
      0006DC 02                    7908 	.uleb128	2
      0006DD 01                    7909 	.db	1
      0006DE 00 00r04r0A           7910 	.dw	0,(Sstm8s_uart1$UART1_HalfDuplexCmd$250)
      0006E2 0E                    7911 	.db	14
      0006E3 03                    7912 	.uleb128	3
      0006E4 01                    7913 	.db	1
      0006E5 00 00r04r0C           7914 	.dw	0,(Sstm8s_uart1$UART1_HalfDuplexCmd$251)
      0006E9 0E                    7915 	.db	14
      0006EA 04                    7916 	.uleb128	4
      0006EB 01                    7917 	.db	1
      0006EC 00 00r04r0E           7918 	.dw	0,(Sstm8s_uart1$UART1_HalfDuplexCmd$252)
      0006F0 0E                    7919 	.db	14
      0006F1 06                    7920 	.uleb128	6
      0006F2 01                    7921 	.db	1
      0006F3 00 00r04r10           7922 	.dw	0,(Sstm8s_uart1$UART1_HalfDuplexCmd$253)
      0006F7 0E                    7923 	.db	14
      0006F8 07                    7924 	.uleb128	7
      0006F9 01                    7925 	.db	1
      0006FA 00 00r04r12           7926 	.dw	0,(Sstm8s_uart1$UART1_HalfDuplexCmd$254)
      0006FE 0E                    7927 	.db	14
      0006FF 08                    7928 	.uleb128	8
      000700 01                    7929 	.db	1
      000701 00 00r04r17           7930 	.dw	0,(Sstm8s_uart1$UART1_HalfDuplexCmd$255)
      000705 0E                    7931 	.db	14
      000706 02                    7932 	.uleb128	2
                                   7933 
                                   7934 	.area .debug_frame (NOLOAD)
      000707 00 00                 7935 	.dw	0
      000709 00 0E                 7936 	.dw	Ldebug_CIE21_end-Ldebug_CIE21_start
      00070B                       7937 Ldebug_CIE21_start:
      00070B FF FF                 7938 	.dw	0xffff
      00070D FF FF                 7939 	.dw	0xffff
      00070F 01                    7940 	.db	1
      000710 00                    7941 	.db	0
      000711 01                    7942 	.uleb128	1
      000712 7F                    7943 	.sleb128	-1
      000713 09                    7944 	.db	9
      000714 0C                    7945 	.db	12
      000715 08                    7946 	.uleb128	8
      000716 02                    7947 	.uleb128	2
      000717 89                    7948 	.db	137
      000718 01                    7949 	.uleb128	1
      000719                       7950 Ldebug_CIE21_end:
      000719 00 00 00 FA           7951 	.dw	0,250
      00071D 00 00r07r07           7952 	.dw	0,(Ldebug_CIE21_start-4)
      000721 00 00r03r00           7953 	.dw	0,(Sstm8s_uart1$UART1_ITConfig$177)	;initial loc
      000725 00 00 00 F9           7954 	.dw	0,Sstm8s_uart1$UART1_ITConfig$245-Sstm8s_uart1$UART1_ITConfig$177
      000729 01                    7955 	.db	1
      00072A 00 00r03r00           7956 	.dw	0,(Sstm8s_uart1$UART1_ITConfig$177)
      00072E 0E                    7957 	.db	14
      00072F 02                    7958 	.uleb128	2
      000730 01                    7959 	.db	1
      000731 00 00r03r01           7960 	.dw	0,(Sstm8s_uart1$UART1_ITConfig$178)
      000735 0E                    7961 	.db	14
      000736 04                    7962 	.uleb128	4
      000737 01                    7963 	.db	1
      000738 00 00r03r0B           7964 	.dw	0,(Sstm8s_uart1$UART1_ITConfig$180)
      00073C 0E                    7965 	.db	14
      00073D 04                    7966 	.uleb128	4
      00073E 01                    7967 	.db	1
      00073F 00 00r03r13           7968 	.dw	0,(Sstm8s_uart1$UART1_ITConfig$181)
      000743 0E                    7969 	.db	14
      000744 04                    7970 	.uleb128	4
      000745 01                    7971 	.db	1
      000746 00 00r03r1B           7972 	.dw	0,(Sstm8s_uart1$UART1_ITConfig$182)
      00074A 0E                    7973 	.db	14
      00074B 04                    7974 	.uleb128	4
      00074C 01                    7975 	.db	1
      00074D 00 00r03r23           7976 	.dw	0,(Sstm8s_uart1$UART1_ITConfig$183)
      000751 0E                    7977 	.db	14
      000752 04                    7978 	.uleb128	4
      000753 01                    7979 	.db	1
      000754 00 00r03r2B           7980 	.dw	0,(Sstm8s_uart1$UART1_ITConfig$184)
      000758 0E                    7981 	.db	14
      000759 04                    7982 	.uleb128	4
      00075A 01                    7983 	.db	1
      00075B 00 00r03r33           7984 	.dw	0,(Sstm8s_uart1$UART1_ITConfig$185)
      00075F 0E                    7985 	.db	14
      000760 04                    7986 	.uleb128	4
      000761 01                    7987 	.db	1
      000762 00 00r03r34           7988 	.dw	0,(Sstm8s_uart1$UART1_ITConfig$186)
      000766 0E                    7989 	.db	14
      000767 06                    7990 	.uleb128	6
      000768 01                    7991 	.db	1
      000769 00 00r03r36           7992 	.dw	0,(Sstm8s_uart1$UART1_ITConfig$187)
      00076D 0E                    7993 	.db	14
      00076E 07                    7994 	.uleb128	7
      00076F 01                    7995 	.db	1
      000770 00 00r03r38           7996 	.dw	0,(Sstm8s_uart1$UART1_ITConfig$188)
      000774 0E                    7997 	.db	14
      000775 08                    7998 	.uleb128	8
      000776 01                    7999 	.db	1
      000777 00 00r03r3A           8000 	.dw	0,(Sstm8s_uart1$UART1_ITConfig$189)
      00077B 0E                    8001 	.db	14
      00077C 09                    8002 	.uleb128	9
      00077D 01                    8003 	.db	1
      00077E 00 00r03r3C           8004 	.dw	0,(Sstm8s_uart1$UART1_ITConfig$190)
      000782 0E                    8005 	.db	14
      000783 0A                    8006 	.uleb128	10
      000784 01                    8007 	.db	1
      000785 00 00r03r3E           8008 	.dw	0,(Sstm8s_uart1$UART1_ITConfig$191)
      000789 0E                    8009 	.db	14
      00078A 0B                    8010 	.uleb128	11
      00078B 01                    8011 	.db	1
      00078C 00 00r03r40           8012 	.dw	0,(Sstm8s_uart1$UART1_ITConfig$192)
      000790 0E                    8013 	.db	14
      000791 0C                    8014 	.uleb128	12
      000792 01                    8015 	.db	1
      000793 00 00r03r45           8016 	.dw	0,(Sstm8s_uart1$UART1_ITConfig$193)
      000797 0E                    8017 	.db	14
      000798 06                    8018 	.uleb128	6
      000799 01                    8019 	.db	1
      00079A 00 00r03r46           8020 	.dw	0,(Sstm8s_uart1$UART1_ITConfig$194)
      00079E 0E                    8021 	.db	14
      00079F 04                    8022 	.uleb128	4
      0007A0 01                    8023 	.db	1
      0007A1 00 00r03r55           8024 	.dw	0,(Sstm8s_uart1$UART1_ITConfig$196)
      0007A5 0E                    8025 	.db	14
      0007A6 04                    8026 	.uleb128	4
      0007A7 01                    8027 	.db	1
      0007A8 00 00r03r56           8028 	.dw	0,(Sstm8s_uart1$UART1_ITConfig$197)
      0007AC 0E                    8029 	.db	14
      0007AD 06                    8030 	.uleb128	6
      0007AE 01                    8031 	.db	1
      0007AF 00 00r03r58           8032 	.dw	0,(Sstm8s_uart1$UART1_ITConfig$198)
      0007B3 0E                    8033 	.db	14
      0007B4 07                    8034 	.uleb128	7
      0007B5 01                    8035 	.db	1
      0007B6 00 00r03r5A           8036 	.dw	0,(Sstm8s_uart1$UART1_ITConfig$199)
      0007BA 0E                    8037 	.db	14
      0007BB 08                    8038 	.uleb128	8
      0007BC 01                    8039 	.db	1
      0007BD 00 00r03r5C           8040 	.dw	0,(Sstm8s_uart1$UART1_ITConfig$200)
      0007C1 0E                    8041 	.db	14
      0007C2 09                    8042 	.uleb128	9
      0007C3 01                    8043 	.db	1
      0007C4 00 00r03r5E           8044 	.dw	0,(Sstm8s_uart1$UART1_ITConfig$201)
      0007C8 0E                    8045 	.db	14
      0007C9 0A                    8046 	.uleb128	10
      0007CA 01                    8047 	.db	1
      0007CB 00 00r03r60           8048 	.dw	0,(Sstm8s_uart1$UART1_ITConfig$202)
      0007CF 0E                    8049 	.db	14
      0007D0 0B                    8050 	.uleb128	11
      0007D1 01                    8051 	.db	1
      0007D2 00 00r03r62           8052 	.dw	0,(Sstm8s_uart1$UART1_ITConfig$203)
      0007D6 0E                    8053 	.db	14
      0007D7 0C                    8054 	.uleb128	12
      0007D8 01                    8055 	.db	1
      0007D9 00 00r03r67           8056 	.dw	0,(Sstm8s_uart1$UART1_ITConfig$204)
      0007DD 0E                    8057 	.db	14
      0007DE 06                    8058 	.uleb128	6
      0007DF 01                    8059 	.db	1
      0007E0 00 00r03r68           8060 	.dw	0,(Sstm8s_uart1$UART1_ITConfig$205)
      0007E4 0E                    8061 	.db	14
      0007E5 04                    8062 	.uleb128	4
      0007E6 01                    8063 	.db	1
      0007E7 00 00r03r6E           8064 	.dw	0,(Sstm8s_uart1$UART1_ITConfig$208)
      0007EB 0E                    8065 	.db	14
      0007EC 05                    8066 	.uleb128	5
      0007ED 01                    8067 	.db	1
      0007EE 00 00r03r73           8068 	.dw	0,(Sstm8s_uart1$UART1_ITConfig$209)
      0007F2 0E                    8069 	.db	14
      0007F3 04                    8070 	.uleb128	4
      0007F4 01                    8071 	.db	1
      0007F5 00 00r03r88           8072 	.dw	0,(Sstm8s_uart1$UART1_ITConfig$211)
      0007F9 0E                    8073 	.db	14
      0007FA 04                    8074 	.uleb128	4
      0007FB 01                    8075 	.db	1
      0007FC 00 00r03r93           8076 	.dw	0,(Sstm8s_uart1$UART1_ITConfig$213)
      000800 0E                    8077 	.db	14
      000801 04                    8078 	.uleb128	4
      000802 01                    8079 	.db	1
      000803 00 00r03rC9           8080 	.dw	0,(Sstm8s_uart1$UART1_ITConfig$228)
      000807 0E                    8081 	.db	14
      000808 05                    8082 	.uleb128	5
      000809 01                    8083 	.db	1
      00080A 00 00r03rCC           8084 	.dw	0,(Sstm8s_uart1$UART1_ITConfig$229)
      00080E 0E                    8085 	.db	14
      00080F 04                    8086 	.uleb128	4
      000810 01                    8087 	.db	1
      000811 00 00r03rF8           8088 	.dw	0,(Sstm8s_uart1$UART1_ITConfig$243)
      000815 0E                    8089 	.db	14
      000816 02                    8090 	.uleb128	2
                                   8091 
                                   8092 	.area .debug_frame (NOLOAD)
      000817 00 00                 8093 	.dw	0
      000819 00 0E                 8094 	.dw	Ldebug_CIE22_end-Ldebug_CIE22_start
      00081B                       8095 Ldebug_CIE22_start:
      00081B FF FF                 8096 	.dw	0xffff
      00081D FF FF                 8097 	.dw	0xffff
      00081F 01                    8098 	.db	1
      000820 00                    8099 	.db	0
      000821 01                    8100 	.uleb128	1
      000822 7F                    8101 	.sleb128	-1
      000823 09                    8102 	.db	9
      000824 0C                    8103 	.db	12
      000825 08                    8104 	.uleb128	8
      000826 02                    8105 	.uleb128	2
      000827 89                    8106 	.db	137
      000828 01                    8107 	.uleb128	1
      000829                       8108 Ldebug_CIE22_end:
      000829 00 00 00 13           8109 	.dw	0,19
      00082D 00 00r08r17           8110 	.dw	0,(Ldebug_CIE22_start-4)
      000831 00 00r02rE8           8111 	.dw	0,(Sstm8s_uart1$UART1_Cmd$164)	;initial loc
      000835 00 00 00 18           8112 	.dw	0,Sstm8s_uart1$UART1_Cmd$175-Sstm8s_uart1$UART1_Cmd$164
      000839 01                    8113 	.db	1
      00083A 00 00r02rE8           8114 	.dw	0,(Sstm8s_uart1$UART1_Cmd$164)
      00083E 0E                    8115 	.db	14
      00083F 02                    8116 	.uleb128	2
                                   8117 
                                   8118 	.area .debug_frame (NOLOAD)
      000840 00 00                 8119 	.dw	0
      000842 00 0E                 8120 	.dw	Ldebug_CIE23_end-Ldebug_CIE23_start
      000844                       8121 Ldebug_CIE23_start:
      000844 FF FF                 8122 	.dw	0xffff
      000846 FF FF                 8123 	.dw	0xffff
      000848 01                    8124 	.db	1
      000849 00                    8125 	.db	0
      00084A 01                    8126 	.uleb128	1
      00084B 7F                    8127 	.sleb128	-1
      00084C 09                    8128 	.db	9
      00084D 0C                    8129 	.db	12
      00084E 08                    8130 	.uleb128	8
      00084F 02                    8131 	.uleb128	2
      000850 89                    8132 	.db	137
      000851 01                    8133 	.uleb128	1
      000852                       8134 Ldebug_CIE23_end:
      000852 00 00 02 AC           8135 	.dw	0,684
      000856 00 00r08r40           8136 	.dw	0,(Ldebug_CIE23_start-4)
      00085A 00 00r00r2B           8137 	.dw	0,(Sstm8s_uart1$UART1_Init$17)	;initial loc
      00085E 00 00 02 BD           8138 	.dw	0,Sstm8s_uart1$UART1_Init$162-Sstm8s_uart1$UART1_Init$17
      000862 01                    8139 	.db	1
      000863 00 00r00r2B           8140 	.dw	0,(Sstm8s_uart1$UART1_Init$17)
      000867 0E                    8141 	.db	14
      000868 02                    8142 	.uleb128	2
      000869 01                    8143 	.db	1
      00086A 00 00r00r2D           8144 	.dw	0,(Sstm8s_uart1$UART1_Init$18)
      00086E 0E                    8145 	.db	14
      00086F 0F                    8146 	.uleb128	15
      000870 01                    8147 	.db	1
      000871 00 00r00r40           8148 	.dw	0,(Sstm8s_uart1$UART1_Init$20)
      000875 0E                    8149 	.db	14
      000876 10                    8150 	.uleb128	16
      000877 01                    8151 	.db	1
      000878 00 00r00r42           8152 	.dw	0,(Sstm8s_uart1$UART1_Init$21)
      00087C 0E                    8153 	.db	14
      00087D 12                    8154 	.uleb128	18
      00087E 01                    8155 	.db	1
      00087F 00 00r00r44           8156 	.dw	0,(Sstm8s_uart1$UART1_Init$22)
      000883 0E                    8157 	.db	14
      000884 13                    8158 	.uleb128	19
      000885 01                    8159 	.db	1
      000886 00 00r00r46           8160 	.dw	0,(Sstm8s_uart1$UART1_Init$23)
      00088A 0E                    8161 	.db	14
      00088B 14                    8162 	.uleb128	20
      00088C 01                    8163 	.db	1
      00088D 00 00r00r48           8164 	.dw	0,(Sstm8s_uart1$UART1_Init$24)
      000891 0E                    8165 	.db	14
      000892 15                    8166 	.uleb128	21
      000893 01                    8167 	.db	1
      000894 00 00r00r4D           8168 	.dw	0,(Sstm8s_uart1$UART1_Init$25)
      000898 0E                    8169 	.db	14
      000899 0F                    8170 	.uleb128	15
      00089A 01                    8171 	.db	1
      00089B 00 00r00r5D           8172 	.dw	0,(Sstm8s_uart1$UART1_Init$27)
      00089F 0E                    8173 	.db	14
      0008A0 0F                    8174 	.uleb128	15
      0008A1 01                    8175 	.db	1
      0008A2 00 00r00r5F           8176 	.dw	0,(Sstm8s_uart1$UART1_Init$28)
      0008A6 0E                    8177 	.db	14
      0008A7 10                    8178 	.uleb128	16
      0008A8 01                    8179 	.db	1
      0008A9 00 00r00r61           8180 	.dw	0,(Sstm8s_uart1$UART1_Init$29)
      0008AD 0E                    8181 	.db	14
      0008AE 12                    8182 	.uleb128	18
      0008AF 01                    8183 	.db	1
      0008B0 00 00r00r63           8184 	.dw	0,(Sstm8s_uart1$UART1_Init$30)
      0008B4 0E                    8185 	.db	14
      0008B5 13                    8186 	.uleb128	19
      0008B6 01                    8187 	.db	1
      0008B7 00 00r00r65           8188 	.dw	0,(Sstm8s_uart1$UART1_Init$31)
      0008BB 0E                    8189 	.db	14
      0008BC 14                    8190 	.uleb128	20
      0008BD 01                    8191 	.db	1
      0008BE 00 00r00r67           8192 	.dw	0,(Sstm8s_uart1$UART1_Init$32)
      0008C2 0E                    8193 	.db	14
      0008C3 15                    8194 	.uleb128	21
      0008C4 01                    8195 	.db	1
      0008C5 00 00r00r6C           8196 	.dw	0,(Sstm8s_uart1$UART1_Init$33)
      0008C9 0E                    8197 	.db	14
      0008CA 0F                    8198 	.uleb128	15
      0008CB 01                    8199 	.db	1
      0008CC 00 00r00r7C           8200 	.dw	0,(Sstm8s_uart1$UART1_Init$35)
      0008D0 0E                    8201 	.db	14
      0008D1 0F                    8202 	.uleb128	15
      0008D2 01                    8203 	.db	1
      0008D3 00 00r00r85           8204 	.dw	0,(Sstm8s_uart1$UART1_Init$36)
      0008D7 0E                    8205 	.db	14
      0008D8 0F                    8206 	.uleb128	15
      0008D9 01                    8207 	.db	1
      0008DA 00 00r00r8E           8208 	.dw	0,(Sstm8s_uart1$UART1_Init$37)
      0008DE 0E                    8209 	.db	14
      0008DF 0F                    8210 	.uleb128	15
      0008E0 01                    8211 	.db	1
      0008E1 00 00r00r90           8212 	.dw	0,(Sstm8s_uart1$UART1_Init$38)
      0008E5 0E                    8213 	.db	14
      0008E6 10                    8214 	.uleb128	16
      0008E7 01                    8215 	.db	1
      0008E8 00 00r00r92           8216 	.dw	0,(Sstm8s_uart1$UART1_Init$39)
      0008EC 0E                    8217 	.db	14
      0008ED 12                    8218 	.uleb128	18
      0008EE 01                    8219 	.db	1
      0008EF 00 00r00r94           8220 	.dw	0,(Sstm8s_uart1$UART1_Init$40)
      0008F3 0E                    8221 	.db	14
      0008F4 13                    8222 	.uleb128	19
      0008F5 01                    8223 	.db	1
      0008F6 00 00r00r96           8224 	.dw	0,(Sstm8s_uart1$UART1_Init$41)
      0008FA 0E                    8225 	.db	14
      0008FB 14                    8226 	.uleb128	20
      0008FC 01                    8227 	.db	1
      0008FD 00 00r00r98           8228 	.dw	0,(Sstm8s_uart1$UART1_Init$42)
      000901 0E                    8229 	.db	14
      000902 15                    8230 	.uleb128	21
      000903 01                    8231 	.db	1
      000904 00 00r00r9D           8232 	.dw	0,(Sstm8s_uart1$UART1_Init$43)
      000908 0E                    8233 	.db	14
      000909 0F                    8234 	.uleb128	15
      00090A 01                    8235 	.db	1
      00090B 00 00r00rAD           8236 	.dw	0,(Sstm8s_uart1$UART1_Init$45)
      00090F 0E                    8237 	.db	14
      000910 0F                    8238 	.uleb128	15
      000911 01                    8239 	.db	1
      000912 00 00r00rB6           8240 	.dw	0,(Sstm8s_uart1$UART1_Init$46)
      000916 0E                    8241 	.db	14
      000917 0F                    8242 	.uleb128	15
      000918 01                    8243 	.db	1
      000919 00 00r00rB8           8244 	.dw	0,(Sstm8s_uart1$UART1_Init$47)
      00091D 0E                    8245 	.db	14
      00091E 10                    8246 	.uleb128	16
      00091F 01                    8247 	.db	1
      000920 00 00r00rBA           8248 	.dw	0,(Sstm8s_uart1$UART1_Init$48)
      000924 0E                    8249 	.db	14
      000925 12                    8250 	.uleb128	18
      000926 01                    8251 	.db	1
      000927 00 00r00rBC           8252 	.dw	0,(Sstm8s_uart1$UART1_Init$49)
      00092B 0E                    8253 	.db	14
      00092C 13                    8254 	.uleb128	19
      00092D 01                    8255 	.db	1
      00092E 00 00r00rBE           8256 	.dw	0,(Sstm8s_uart1$UART1_Init$50)
      000932 0E                    8257 	.db	14
      000933 14                    8258 	.uleb128	20
      000934 01                    8259 	.db	1
      000935 00 00r00rC0           8260 	.dw	0,(Sstm8s_uart1$UART1_Init$51)
      000939 0E                    8261 	.db	14
      00093A 15                    8262 	.uleb128	21
      00093B 01                    8263 	.db	1
      00093C 00 00r00rC5           8264 	.dw	0,(Sstm8s_uart1$UART1_Init$52)
      000940 0E                    8265 	.db	14
      000941 0F                    8266 	.uleb128	15
      000942 01                    8267 	.db	1
      000943 00 00r00rCE           8268 	.dw	0,(Sstm8s_uart1$UART1_Init$54)
      000947 0E                    8269 	.db	14
      000948 0F                    8270 	.uleb128	15
      000949 01                    8271 	.db	1
      00094A 00 00r00rD7           8272 	.dw	0,(Sstm8s_uart1$UART1_Init$55)
      00094E 0E                    8273 	.db	14
      00094F 0F                    8274 	.uleb128	15
      000950 01                    8275 	.db	1
      000951 00 00r00rE0           8276 	.dw	0,(Sstm8s_uart1$UART1_Init$56)
      000955 0E                    8277 	.db	14
      000956 0F                    8278 	.uleb128	15
      000957 01                    8279 	.db	1
      000958 00 00r00rE9           8280 	.dw	0,(Sstm8s_uart1$UART1_Init$57)
      00095C 0E                    8281 	.db	14
      00095D 0F                    8282 	.uleb128	15
      00095E 01                    8283 	.db	1
      00095F 00 00r00rF5           8284 	.dw	0,(Sstm8s_uart1$UART1_Init$58)
      000963 0E                    8285 	.db	14
      000964 0F                    8286 	.uleb128	15
      000965 01                    8287 	.db	1
      000966 00 00r01r0A           8288 	.dw	0,(Sstm8s_uart1$UART1_Init$59)
      00096A 0E                    8289 	.db	14
      00096B 0F                    8290 	.uleb128	15
      00096C 01                    8291 	.db	1
      00096D 00 00r01r13           8292 	.dw	0,(Sstm8s_uart1$UART1_Init$60)
      000971 0E                    8293 	.db	14
      000972 0F                    8294 	.uleb128	15
      000973 01                    8295 	.db	1
      000974 00 00r01r1C           8296 	.dw	0,(Sstm8s_uart1$UART1_Init$61)
      000978 0E                    8297 	.db	14
      000979 0F                    8298 	.uleb128	15
      00097A 01                    8299 	.db	1
      00097B 00 00r01r1E           8300 	.dw	0,(Sstm8s_uart1$UART1_Init$62)
      00097F 0E                    8301 	.db	14
      000980 10                    8302 	.uleb128	16
      000981 01                    8303 	.db	1
      000982 00 00r01r20           8304 	.dw	0,(Sstm8s_uart1$UART1_Init$63)
      000986 0E                    8305 	.db	14
      000987 12                    8306 	.uleb128	18
      000988 01                    8307 	.db	1
      000989 00 00r01r22           8308 	.dw	0,(Sstm8s_uart1$UART1_Init$64)
      00098D 0E                    8309 	.db	14
      00098E 13                    8310 	.uleb128	19
      00098F 01                    8311 	.db	1
      000990 00 00r01r24           8312 	.dw	0,(Sstm8s_uart1$UART1_Init$65)
      000994 0E                    8313 	.db	14
      000995 14                    8314 	.uleb128	20
      000996 01                    8315 	.db	1
      000997 00 00r01r26           8316 	.dw	0,(Sstm8s_uart1$UART1_Init$66)
      00099B 0E                    8317 	.db	14
      00099C 15                    8318 	.uleb128	21
      00099D 01                    8319 	.db	1
      00099E 00 00r01r2B           8320 	.dw	0,(Sstm8s_uart1$UART1_Init$67)
      0009A2 0E                    8321 	.db	14
      0009A3 0F                    8322 	.uleb128	15
      0009A4 01                    8323 	.db	1
      0009A5 00 00r01r36           8324 	.dw	0,(Sstm8s_uart1$UART1_Init$69)
      0009A9 0E                    8325 	.db	14
      0009AA 0F                    8326 	.uleb128	15
      0009AB 01                    8327 	.db	1
      0009AC 00 00r01r41           8328 	.dw	0,(Sstm8s_uart1$UART1_Init$70)
      0009B0 0E                    8329 	.db	14
      0009B1 0F                    8330 	.uleb128	15
      0009B2 01                    8331 	.db	1
      0009B3 00 00r01r4C           8332 	.dw	0,(Sstm8s_uart1$UART1_Init$71)
      0009B7 0E                    8333 	.db	14
      0009B8 0F                    8334 	.uleb128	15
      0009B9 01                    8335 	.db	1
      0009BA 00 00r01r5A           8336 	.dw	0,(Sstm8s_uart1$UART1_Init$72)
      0009BE 0E                    8337 	.db	14
      0009BF 0F                    8338 	.uleb128	15
      0009C0 01                    8339 	.db	1
      0009C1 00 00r01r5C           8340 	.dw	0,(Sstm8s_uart1$UART1_Init$73)
      0009C5 0E                    8341 	.db	14
      0009C6 10                    8342 	.uleb128	16
      0009C7 01                    8343 	.db	1
      0009C8 00 00r01r5E           8344 	.dw	0,(Sstm8s_uart1$UART1_Init$74)
      0009CC 0E                    8345 	.db	14
      0009CD 12                    8346 	.uleb128	18
      0009CE 01                    8347 	.db	1
      0009CF 00 00r01r60           8348 	.dw	0,(Sstm8s_uart1$UART1_Init$75)
      0009D3 0E                    8349 	.db	14
      0009D4 13                    8350 	.uleb128	19
      0009D5 01                    8351 	.db	1
      0009D6 00 00r01r62           8352 	.dw	0,(Sstm8s_uart1$UART1_Init$76)
      0009DA 0E                    8353 	.db	14
      0009DB 14                    8354 	.uleb128	20
      0009DC 01                    8355 	.db	1
      0009DD 00 00r01r64           8356 	.dw	0,(Sstm8s_uart1$UART1_Init$77)
      0009E1 0E                    8357 	.db	14
      0009E2 15                    8358 	.uleb128	21
      0009E3 01                    8359 	.db	1
      0009E4 00 00r01r69           8360 	.dw	0,(Sstm8s_uart1$UART1_Init$78)
      0009E8 0E                    8361 	.db	14
      0009E9 0F                    8362 	.uleb128	15
      0009EA 01                    8363 	.db	1
      0009EB 00 00r01rCA           8364 	.dw	0,(Sstm8s_uart1$UART1_Init$89)
      0009EF 0E                    8365 	.db	14
      0009F0 11                    8366 	.uleb128	17
      0009F1 01                    8367 	.db	1
      0009F2 00 00r01rCD           8368 	.dw	0,(Sstm8s_uart1$UART1_Init$90)
      0009F6 0E                    8369 	.db	14
      0009F7 13                    8370 	.uleb128	19
      0009F8 01                    8371 	.db	1
      0009F9 00 00r01rD0           8372 	.dw	0,(Sstm8s_uart1$UART1_Init$91)
      0009FD 0E                    8373 	.db	14
      0009FE 15                    8374 	.uleb128	21
      0009FF 01                    8375 	.db	1
      000A00 00 00r01rD2           8376 	.dw	0,(Sstm8s_uart1$UART1_Init$92)
      000A04 0E                    8377 	.db	14
      000A05 17                    8378 	.uleb128	23
      000A06 01                    8379 	.db	1
      000A07 00 00r01rD7           8380 	.dw	0,(Sstm8s_uart1$UART1_Init$93)
      000A0B 0E                    8381 	.db	14
      000A0C 0F                    8382 	.uleb128	15
      000A0D 01                    8383 	.db	1
      000A0E 00 00r01rDF           8384 	.dw	0,(Sstm8s_uart1$UART1_Init$95)
      000A12 0E                    8385 	.db	14
      000A13 11                    8386 	.uleb128	17
      000A14 01                    8387 	.db	1
      000A15 00 00r01rE1           8388 	.dw	0,(Sstm8s_uart1$UART1_Init$96)
      000A19 0E                    8389 	.db	14
      000A1A 13                    8390 	.uleb128	19
      000A1B 01                    8391 	.db	1
      000A1C 00 00r01rE3           8392 	.dw	0,(Sstm8s_uart1$UART1_Init$97)
      000A20 0E                    8393 	.db	14
      000A21 14                    8394 	.uleb128	20
      000A22 01                    8395 	.db	1
      000A23 00 00r01rE5           8396 	.dw	0,(Sstm8s_uart1$UART1_Init$98)
      000A27 0E                    8397 	.db	14
      000A28 16                    8398 	.uleb128	22
      000A29 01                    8399 	.db	1
      000A2A 00 00r01rE7           8400 	.dw	0,(Sstm8s_uart1$UART1_Init$99)
      000A2E 0E                    8401 	.db	14
      000A2F 17                    8402 	.uleb128	23
      000A30 01                    8403 	.db	1
      000A31 00 00r01rEC           8404 	.dw	0,(Sstm8s_uart1$UART1_Init$100)
      000A35 0E                    8405 	.db	14
      000A36 0F                    8406 	.uleb128	15
      000A37 01                    8407 	.db	1
      000A38 00 00r01rF1           8408 	.dw	0,(Sstm8s_uart1$UART1_Init$101)
      000A3C 0E                    8409 	.db	14
      000A3D 11                    8410 	.uleb128	17
      000A3E 01                    8411 	.db	1
      000A3F 00 00r01rF4           8412 	.dw	0,(Sstm8s_uart1$UART1_Init$102)
      000A43 0E                    8413 	.db	14
      000A44 13                    8414 	.uleb128	19
      000A45 01                    8415 	.db	1
      000A46 00 00r01rF7           8416 	.dw	0,(Sstm8s_uart1$UART1_Init$103)
      000A4A 0E                    8417 	.db	14
      000A4B 15                    8418 	.uleb128	21
      000A4C 01                    8419 	.db	1
      000A4D 00 00r01rF9           8420 	.dw	0,(Sstm8s_uart1$UART1_Init$104)
      000A51 0E                    8421 	.db	14
      000A52 17                    8422 	.uleb128	23
      000A53 01                    8423 	.db	1
      000A54 00 00r01rFE           8424 	.dw	0,(Sstm8s_uart1$UART1_Init$105)
      000A58 0E                    8425 	.db	14
      000A59 0F                    8426 	.uleb128	15
      000A5A 01                    8427 	.db	1
      000A5B 00 00r02r0A           8428 	.dw	0,(Sstm8s_uart1$UART1_Init$107)
      000A5F 0E                    8429 	.db	14
      000A60 10                    8430 	.uleb128	16
      000A61 01                    8431 	.db	1
      000A62 00 00r02r0E           8432 	.dw	0,(Sstm8s_uart1$UART1_Init$108)
      000A66 0E                    8433 	.db	14
      000A67 0F                    8434 	.uleb128	15
      000A68 01                    8435 	.db	1
      000A69 00 00r02r0F           8436 	.dw	0,(Sstm8s_uart1$UART1_Init$109)
      000A6D 0E                    8437 	.db	14
      000A6E 10                    8438 	.uleb128	16
      000A6F 01                    8439 	.db	1
      000A70 00 00r02r12           8440 	.dw	0,(Sstm8s_uart1$UART1_Init$110)
      000A74 0E                    8441 	.db	14
      000A75 12                    8442 	.uleb128	18
      000A76 01                    8443 	.db	1
      000A77 00 00r02r15           8444 	.dw	0,(Sstm8s_uart1$UART1_Init$111)
      000A7B 0E                    8445 	.db	14
      000A7C 14                    8446 	.uleb128	20
      000A7D 01                    8447 	.db	1
      000A7E 00 00r02r17           8448 	.dw	0,(Sstm8s_uart1$UART1_Init$112)
      000A82 0E                    8449 	.db	14
      000A83 15                    8450 	.uleb128	21
      000A84 01                    8451 	.db	1
      000A85 00 00r02r19           8452 	.dw	0,(Sstm8s_uart1$UART1_Init$113)
      000A89 0E                    8453 	.db	14
      000A8A 17                    8454 	.uleb128	23
      000A8B 01                    8455 	.db	1
      000A8C 00 00r02r1B           8456 	.dw	0,(Sstm8s_uart1$UART1_Init$114)
      000A90 0E                    8457 	.db	14
      000A91 18                    8458 	.uleb128	24
      000A92 01                    8459 	.db	1
      000A93 00 00r02r20           8460 	.dw	0,(Sstm8s_uart1$UART1_Init$115)
      000A97 0E                    8461 	.db	14
      000A98 10                    8462 	.uleb128	16
      000A99 01                    8463 	.db	1
      000A9A 00 00r02r25           8464 	.dw	0,(Sstm8s_uart1$UART1_Init$116)
      000A9E 0E                    8465 	.db	14
      000A9F 0F                    8466 	.uleb128	15
      000AA0 01                    8467 	.db	1
      000AA1 00 00r02r3C           8468 	.dw	0,(Sstm8s_uart1$UART1_Init$117)
      000AA5 0E                    8469 	.db	14
      000AA6 10                    8470 	.uleb128	16
      000AA7 01                    8471 	.db	1
      000AA8 00 00r02r3E           8472 	.dw	0,(Sstm8s_uart1$UART1_Init$118)
      000AAC 0E                    8473 	.db	14
      000AAD 11                    8474 	.uleb128	17
      000AAE 01                    8475 	.db	1
      000AAF 00 00r02r40           8476 	.dw	0,(Sstm8s_uart1$UART1_Init$119)
      000AB3 0E                    8477 	.db	14
      000AB4 12                    8478 	.uleb128	18
      000AB5 01                    8479 	.db	1
      000AB6 00 00r02r42           8480 	.dw	0,(Sstm8s_uart1$UART1_Init$120)
      000ABA 0E                    8481 	.db	14
      000ABB 13                    8482 	.uleb128	19
      000ABC 01                    8483 	.db	1
      000ABD 00 00r02r44           8484 	.dw	0,(Sstm8s_uart1$UART1_Init$121)
      000AC1 0E                    8485 	.db	14
      000AC2 15                    8486 	.uleb128	21
      000AC3 01                    8487 	.db	1
      000AC4 00 00r02r45           8488 	.dw	0,(Sstm8s_uart1$UART1_Init$122)
      000AC8 0E                    8489 	.db	14
      000AC9 17                    8490 	.uleb128	23
      000ACA 01                    8491 	.db	1
      000ACB 00 00r02r4A           8492 	.dw	0,(Sstm8s_uart1$UART1_Init$123)
      000ACF 0E                    8493 	.db	14
      000AD0 0F                    8494 	.uleb128	15
      000AD1 01                    8495 	.db	1
      000AD2 00 00r02r94           8496 	.dw	0,(Sstm8s_uart1$UART1_Init$131)
      000AD6 0E                    8497 	.db	14
      000AD7 10                    8498 	.uleb128	16
      000AD8 01                    8499 	.db	1
      000AD9 00 00r02r99           8500 	.dw	0,(Sstm8s_uart1$UART1_Init$132)
      000ADD 0E                    8501 	.db	14
      000ADE 0F                    8502 	.uleb128	15
      000ADF 01                    8503 	.db	1
      000AE0 00 00r02rAF           8504 	.dw	0,(Sstm8s_uart1$UART1_Init$141)
      000AE4 0E                    8505 	.db	14
      000AE5 10                    8506 	.uleb128	16
      000AE6 01                    8507 	.db	1
      000AE7 00 00r02rB4           8508 	.dw	0,(Sstm8s_uart1$UART1_Init$142)
      000AEB 0E                    8509 	.db	14
      000AEC 0F                    8510 	.uleb128	15
      000AED 01                    8511 	.db	1
      000AEE 00 00r02rD9           8512 	.dw	0,(Sstm8s_uart1$UART1_Init$156)
      000AF2 0E                    8513 	.db	14
      000AF3 10                    8514 	.uleb128	16
      000AF4 01                    8515 	.db	1
      000AF5 00 00r02rE0           8516 	.dw	0,(Sstm8s_uart1$UART1_Init$157)
      000AF9 0E                    8517 	.db	14
      000AFA 0F                    8518 	.uleb128	15
      000AFB 01                    8519 	.db	1
      000AFC 00 00r02rE7           8520 	.dw	0,(Sstm8s_uart1$UART1_Init$160)
      000B00 0E                    8521 	.db	14
      000B01 02                    8522 	.uleb128	2
                                   8523 
                                   8524 	.area .debug_frame (NOLOAD)
      000B02 00 00                 8525 	.dw	0
      000B04 00 0E                 8526 	.dw	Ldebug_CIE24_end-Ldebug_CIE24_start
      000B06                       8527 Ldebug_CIE24_start:
      000B06 FF FF                 8528 	.dw	0xffff
      000B08 FF FF                 8529 	.dw	0xffff
      000B0A 01                    8530 	.db	1
      000B0B 00                    8531 	.db	0
      000B0C 01                    8532 	.uleb128	1
      000B0D 7F                    8533 	.sleb128	-1
      000B0E 09                    8534 	.db	9
      000B0F 0C                    8535 	.db	12
      000B10 08                    8536 	.uleb128	8
      000B11 02                    8537 	.uleb128	2
      000B12 89                    8538 	.db	137
      000B13 01                    8539 	.uleb128	1
      000B14                       8540 Ldebug_CIE24_end:
      000B14 00 00 00 13           8541 	.dw	0,19
      000B18 00 00r0Br02           8542 	.dw	0,(Ldebug_CIE24_start-4)
      000B1C 00 00r00r00           8543 	.dw	0,(Sstm8s_uart1$UART1_DeInit$1)	;initial loc
      000B20 00 00 00 2B           8544 	.dw	0,Sstm8s_uart1$UART1_DeInit$15-Sstm8s_uart1$UART1_DeInit$1
      000B24 01                    8545 	.db	1
      000B25 00 00r00r00           8546 	.dw	0,(Sstm8s_uart1$UART1_DeInit$1)
      000B29 0E                    8547 	.db	14
      000B2A 02                    8548 	.uleb128	2
